ccopy_reg
_reconstructor
p0
(csklearn.feature_extraction.dict_vectorizer
DictVectorizer
p1
c__builtin__
object
p2
Ntp3
Rp4
(dp5
S'vocabulary_'
p6
(dp7
Vfawn
p8
I2486
sVvirologists
p9
I4475
sVlaryngitis
p10
I3080
sVmandible
p11
I3221
sV[linked] renal failure syndrome
p12
I1255
sVviral haemorrhagic fever
p13
I4465
sVmicrosporidia
p14
I3279
sVblisters
p15
I1705
sVnursery
p16
I3473
sV[linked] salivation
p17
I1288
sV[linked] glucose metabolism disease
p18
I856
sVmild bleeding
p19
I3287
sVunguiculata
p20
I4393
sVLPAI
p21
I79
sV[linked] precipitate
p22
I1212
sV[linked] vascular plant
p23
I1378
sVaggression
p24
I1474
sVskeleton
p25
I4038
sVswine origin flu
p26
I4216
sVdiaphragm
p27
I2228
sVminer
p28
I3290
sVnorovirus
p29
I3467
sVswam
p30
I4191
sVtremors
p31
I4339
sVseaweed
p32
I3963
sVmediterranean fever
p33
I3250
sV[linked] Organic Mental disorder
p34
I394
sV[linked] Neurodegenerative disease
p35
I382
sV[linked] connective tissue disease
p36
I703
sVblood cancer
p37
I1712
sVitchiness
p38
I3012
sVpythiosis
p39
I3759
sV[linked] joint pain
p40
I954
sVhealth department official
p41
I2728
sVvermin
p42
I4440
sVrisk
p43
I3878
sVinflammation in joints
p44
I2943
sVrheumatoid arthritis
p45
I3854
sV[linked] Hemolytic anemia
p46
I265
sVother animal disease
p47
I3508
sV[linked] fungal infectious disease
p48
I840
sVmemory loss
p49
I3256
sV[linked] Leishmaniasis
p50
I316
sVpoliovirus
p51
I3662
sVmarburgvirus
p52
I3230
sVmicrobe
p53
I3275
sVviral
p54
I4460
sVmeasles virus
p55
I3243
sV[linked] acute on chronic respiratory failure
p56
I513
sVdeer mice
p57
I2193
sVanemia
p58
I1527
sVMAP
p59
I82
sVdisorientation
p60
I2254
sV[linked] hematopoietic and lymphoid system tumor
p61
I871
sVpigeons
p62
I3620
sVyerba buena
p63
I4558
sV[linked] cephalalgia
p64
I658
sVhumidity
p65
I2858
sV[linked] season
p66
I1290
sVcystic fibrosis
p67
I2169
sVsyphilis
p68
I4229
sVuncooked
p69
I4379
sVcloudiness
p70
I1998
sVvertebrae
p71
I4441
sV[linked] specific developmental disorder
p72
I1311
sVkyasanur forest disease
p73
I3054
sV[linked] hypersensitivity
p74
I907
sVornamental
p75
I3504
sVflinders island spotted fever
p76
I2536
sVeagle
p77
I2317
sVovarian cancer
p78
I3511
sVEVA
p79
I46
sVcytomegalovirus
p80
I2171
sVdeer mouse
p81
I2194
sVEVD
p82
I47
sVshrubland
p83
I4023
sVthalassemia
p84
I4262
sVnail
p85
I3398
sVceliac disease
p86
I1894
sVenvironmental illness
p87
I2396
sVrespiratory distress
p88
I3831
sVair
p89
I1482
sV[linked] central nervous system disease
p90
I657
sVepidural abscess
p91
I2406
sVLSD
p92
I80
sVcrimean congo hemorrhagic fever
p93
I2133
sVacute gastritis
p94
I1443
sVwreck
p95
I4546
sVmonsoon
p96
I3309
sV[linked] Exercise induced asthma
p97
I238
sVvaricella zoster virus
p98
I4431
sVbang s disease
p99
I1644
sV[linked] Louse-borne typhus
p100
I340
sVinterstitial nephritis
p101
I2989
sVcirque
p102
I1974
sVjaundice
p103
I3024
sVbovine pleuropneumonia
p104
I1763
sVleprosy
p105
I3112
sVcull
p106
I2156
sVallergic bronchopulmonary aspergillosis
p107
I1499
sVobstructive hydrocephalus
p108
I3481
sV[linked] disorder of liver
p109
I758
sVparotitis
p110
I3561
sVgastritis
p111
I2603
sVherb
p112
I2792
sVhiv positive
p113
I2821
sV[linked] disorder of ovary
p114
I767
sVneurotoxicity
p115
I3446
sVbrainstem infarction
p116
I1775
sV[linked] Thrombocytopathy
p117
I462
sVdecontaminated
p118
I2185
sV[linked] disorder of inner ear
p119
I756
sV[linked] malignant neoplasm of nervous system
p120
I1041
sV[linked] Joint ankylosis of the upper arm
p121
I310
sV[linked] mollusk
p122
I1077
sVbrain abscess
p123
I1770
sVdoldrums
p124
I2277
sV[linked] Myeloproliferative disease, no ICD-O subtype
p125
I377
sVeye disease
p126
I2460
sV[linked] Bronchial hypersensitivity
p127
I178
sV[linked] grub
p128
I862
sVoasis
p129
I3479
sVrestricted area
p130
I3843
sVconjunctiva
p131
I2045
sVvaccinia
p132
I4421
sVlimb weakness
p133
I3127
sVegg allergy
p134
I2350
sVhydrophobia
p135
I2872
sVlyssavirus
p136
I3197
sVswan
p137
I4194
sVdivide
p138
I2263
sVstray
p139
I4152
sV[linked] Viral disease
p140
I486
sV[linked] malignant neoplasm of liver, not specified as primary or secondary
p141
I1034
sVintestinal perforation
p142
I2997
sVintermittent fever
p143
I2985
sV[linked] Arteriosclerotic cardiovascular disease, NOS
p144
I145
sVcounty
p145
I2105
sVthroat
p146
I4273
sVgait disturbance
p147
I2593
sV[linked] acute and chronic respiratory failure
p148
I503
sV[linked] Other dermatitis due to solar radiation
p149
I396
sV[linked] back pain
p150
I586
sVgorillas
p151
I2645
sVbasenji
p152
I1650
sVcerebral palsy
p153
I1902
sV[linked] Leishmaniasis, unspecified
p154
I318
sV[linked] skin redness
p155
I1306
sVcough
p156
I2102
sVarmy
p157
I1574
sV[linked] connective tissue neoplasm
p158
I705
sVinsecurity
p159
I2976
sV[linked] malignant bone tumour
p160
I1017
sVheat wave
p161
I2741
sVpainful sores in the mouth
p162
I3531
sV[linked] Ankylosis of joint of lower leg
p163
I136
sVsecondary syphilis
p164
I3964
sVprion disease
p165
I3711
sVcalm
p166
I1846
sVwet season
p167
I4523
sVdead bodies
p168
I2176
sVfainting
p169
I2473
sV[linked] Valvular heart disease
p170
I484
sVcalf
p171
I1845
sVlosing weight
p172
I3153
sV[linked] Dyspraxia syndrome
p173
I223
sVtobacco
p174
I4298
sVexpat
p175
I2450
sV[linked] acute and subacute liver necrosis
p176
I504
sVbreeders
p177
I1791
sV[linked] Tuberculosis, postpartum
p178
I467
sVwart
p179
I4493
sVsevere obesity
p180
I3991
sVmutant
p181
I3371
sVautumnal
p182
I1610
sVskin eruption
p183
I4044
sVgroup a streptococcus
p184
I2663
sV[linked] Articular cartilage disorder of ankle and/or foot
p185
I155
sVeschars
p186
I2433
sVadult
p187
I1460
sVmaedi visna virus
p188
I3207
sV[linked] Connective tissue disease
p189
I199
sVvesicular stomatitis
p190
I4444
sV[linked] Blindness or low vision NOS
p191
I172
sVmarsupial
p192
I3235
sV[linked] Lactic acidosis
p193
I315
sV[linked] skin and integumentary tissue symptom
p194
I1299
sVhantavirus disease
p195
I2711
sV[linked] mouth disease
p196
I1082
sVeee virus
p197
I2349
sVneedle stick
p198
I3419
sV[linked] ant
p199
I549
sVbloody sputum
p200
I1722
sVwhite nose syndrome
p201
I4526
sVcataract
p202
I1884
sVmammalian
p203
I3220
sV[linked] sebaceous gland disease
p204
I1291
sVrains
p205
I3781
sV[linked] monogenic disease
p206
I1079
sV[linked] stomach disorder
p207
I1320
sVcardiopulmonary disease
p208
I1877
sVsalmonellosis schwarzengrund
p209
I3923
sVskin cancer
p210
I4042
sVhansen
p211
I2707
sVnewfoundland
p212
I3452
sV[linked] disorder of nasopharynx
p213
I765
sVsexually transmitted infection
p214
I3998
sVencephalomyelitis
p215
I2372
sVchest wall
p216
I1920
sVhead pressing
p217
I2721
sV[linked] vertebrate
p218
I1381
sVeczema
p219
I2343
sVascites
p220
I1584
sVrainy season
p221
I3784
sVencephalitis viral
p222
I2369
sVsurface water
p223
I4186
sVparalytic shellfish poisoning
p224
I3547
sVthe flu
p225
I4264
sV[linked] Dermatitis due to substances taken internally
p226
I213
sVparcel
p227
I3557
sVporcine reproductive and respiratory syndrome
p228
I3681
sV[linked] orthopterous insect
p229
I1156
sVpolio
p230
I3659
sVcontact with skin
p231
I2066
sVvariant cjd
p232
I4428
sVvomiting
p233
I4487
sV[linked] alteration of consciousness
p234
I531
sVischemic heart disease
p235
I3006
sVlacrimation
p236
I3067
sVwest nile encephalitis
p237
I4516
sVlesions
p238
I3116
sVlisteria monocytogenes
p239
I3131
sVhop
p240
I2831
sVlegionnaires
p241
I3098
sVpericardium
p242
I3583
sVtouching
p243
I4308
sVswine
p244
I4208
sVloggers
p245
I3152
sV[linked] Contact dermatitis
p246
I201
sVcontact with water
p247
I2072
sVpig
p248
I3617
sVcrowding
p249
I2143
sVo nyong nyong virus
p250
I3478
sVmating season
p251
I3239
sVbreathlessness
p252
I1789
sVarthritis
p253
I1580
sVintestinal infectious disease
p254
I2995
sV[linked] malignant neoplasm of bone, NOS
p255
I1025
sVplasmodium falciparum
p256
I3640
sVpossum
p257
I3682
sVtestes
p258
I4258
sVinfection in sheep
p259
I2926
sV[linked] skin eruption
p260
I1302
sVwaterfall
p261
I4500
sV[linked] malignant hematopoietic neoplasm
p262
I1020
sV[linked] classical dengue
p263
I681
sVtick borne disease
p264
I4285
sV[linked] lupus
p265
I991
sVleishmania
p266
I3102
sVinfectious pustular vulvovaginitis
p267
I2934
sVgoat pox
p268
I2632
sV[linked] cornea symptom
p269
I709
sVseptic shock
p270
I3975
sVswans
p271
I4195
sV[linked] Infectious arthropathy
p272
I291
sVfungi
p273
I2591
sVparasitemia
p274
I3551
sV[linked] hemipterous insect
p275
I878
sV[linked] infectious abortion
p276
I929
sVstreptococcus equi
p277
I4159
sV[linked] Inflammatory disorder of muscle
p278
I296
sVoysters
p279
I3518
sVCFS
p280
I22
sVCCPP
p281
I19
sVfoetal
p282
I2555
sVdrug addicts
p283
I2297
sVyersinia enterocolitica
p284
I4560
sVfetus
p285
I2506
sVboiling water
p286
I1741
sVfilovirus
p287
I2515
sVlack of clean water
p288
I3060
sVmosquito bite
p289
I3313
sVmiscarriage
p290
I3294
sVpest of small ruminants
p291
I3594
sVlistlessness
p292
I3133
sV[linked] bile duct adenocarcinoma
p293
I603
sVtoxoplasma
p294
I4318
sV[linked] inborn renal tubular transport disorder
p295
I924
sV[linked] primary malignant neoplasm of liver NOS
p296
I1220
sVtick fever
p297
I4288
sVewe
p298
I2443
sVpulmonary anthrax
p299
I3739
sVmiscarry
p300
I3295
sVgastrointestinal
p301
I2605
sVsomnolence
p302
I4082
sVbreath
p303
I1782
sVfit
p304
I2523
sV[linked] diarrhoea
p305
I730
sVsick animals
p306
I4025
sV[linked] Inflammation of lymph node
p307
I293
sVanemic
p308
I1528
sVinfectious salmon anaemia
p309
I2935
sVchronic hepatitis b
p310
I1962
sVshoulder pain
p311
I4018
sVlyme disease
p312
I3183
sVsavory
p313
I3936
sVprecipitate
p314
I3695
sVgoose
p315
I2643
sVlanguid
p316
I3073
sV[linked] Articular cartilage disorder involving multiple sites
p317
I151
sVplasmodium knowlesi
p318
I3641
sVexserohilum
p319
I2453
sV[linked] bone tumor
p320
I627
sVenterovirus 71
p321
I2391
sVspray
p322
I4105
sV[linked] weight loss
p323
I1398
sVatherosclerosis
p324
I1597
sVdisseminated intravascular coagulation
p325
I2258
sV[linked] Arteriosclerosis NOS
p326
I142
sVcaterpillar
p327
I1888
sVhypoxia
p328
I2891
sVcrib
p329
I2128
sV[linked] insectivorous
p330
I941
sVepidemiologists
p331
I2403
sV[linked] Jail fever
p332
I302
sVitchy
p333
I3014
sVloss of consciousness
p334
I3156
sV[linked] inborn metabolism disorder
p335
I922
sVhepatitis d virus
p336
I2785
sVprobiotic
p337
I3712
sVlupine
p338
I3179
sVloss of equilibrium
p339
I3157
sV[linked] induced malaria
p340
I927
sVblotchy red rash
p341
I1726
sVmyxomatosis
p342
I3397
sVvivax malaria
p343
I4482
sVgiardiasis
p344
I2622
sV[linked] abdominal symptom
p345
I494
sVcoronavirus
p346
I2093
sV[linked] Congestive heart disease
p347
I195
sVmysterious disease
p348
I3390
sVehd virus
p349
I2352
sVmarburg infection
p350
I3227
sVmelaena
p351
I3252
sVnasal congestion
p352
I3404
sV[linked] disorder of pleura
p353
I768
sVencephalitis
p354
I2368
sV[linked] retina disorder
p355
I1275
sVkidney failure
p356
I3042
sV[linked] Chondropathy
p357
I191
sVchlamydial
p358
I1945
sVconstipation
p359
I2051
sVdengue haemorrhagic fever
p360
I2210
sVbovine ephemeral fever
p361
I1761
sV[linked] hepatic neoplasm
p362
I887
sVdisplacement
p363
I2256
sV[linked] infectious agent
p364
I930
sVequids
p365
I2416
sVminister of health
p366
I3292
sVtouched
p367
I4307
sVnavy
p368
I3412
sVaids
p369
I1480
sV[linked] disease of anatomical entity
p370
I740
sVrickettsia tsutsugamushi
p371
I3864
sVtsutsugamushi
p372
I4354
sVmites
p373
I3299
sVh5n1 avian influenza
p374
I2687
sVgibbon
p375
I2623
sVstagnant ponds
p376
I4118
sVAHS
p377
I2
sVatypical pneumonia
p378
I1604
sV[linked] fungus gnat
p379
I841
sVHPS
p380
I69
sV[linked] liver disorder antepartum
p381
I981
sVvector
p382
I4435
sVcentral nervous system disease
p383
I1898
sVendemic
p384
I2375
sV[linked] Granulopenia
p385
I257
sV[linked] Inborn Errors of Metabolism
p386
I285
sVrobles
p387
I3881
sVcongenital heart defects
p388
I2040
sVtingling
p389
I4294
sV[linked] Flea-borne rickettsiosis
p390
I245
sVhemorrhaging
p391
I2769
sVcity
p392
I1976
sVleopard
p393
I3109
sV[linked] woody plant
p394
I1405
sVtransitional area
p395
I4329
sVcirrhosis
p396
I1975
sVpoor appetite
p397
I3675
sVformation
p398
I2575
sV[linked] acute respiratory Failure
p399
I515
sVspontaneous abortion
p400
I4103
sV[linked] aphasia
p401
I554
sVkit
p402
I3049
sVsquamous cell carcinoma
p403
I4110
sV[linked] ovarian disease
p404
I1159
sVrarity
p405
I3794
sV[linked] chronic kidney failure
p406
I669
sVfomites
p407
I2560
sV[linked] snow
p408
I1309
sVepizootic hemorrhagic disease
p409
I2411
sVdiabetic
p410
I2227
sVminers
p411
I3291
sVlouse
p412
I3159
sVacute pharyngitis
p413
I1451
sVleishmaniose
p414
I3106
sVnurses
p415
I3474
sVrotavirus
p416
I3896
sV[linked] Pneumonitis
p417
I415
sVprogressive weakness
p418
I3715
sVpain in the stomach
p419
I3529
sVsexual contact
p420
I3996
sVhemoglobinuria
p421
I2756
sVmouth
p422
I3324
sVheadwaters
p423
I2724
sVacute pyelonephritis
p424
I1453
sVinspectors
p425
I2981
sV[linked] Encephalitis &/or myelitis
p426
I227
sV[linked] Myeloid leukemia, disease [Ambiguous]
p427
I371
sVrhabdovirus
p428
I3850
sV[linked] Myeloproliferative tumors
p429
I379
sVflesh eating disease
p430
I2535
sVresearcher
p431
I3824
sVcontaminated water
p432
I2080
sVrodent borne
p433
I3889
sVclassical dengue
p434
I1980
sVchigger borne rickettsiosis
p435
I1928
sVH3N8
p436
I54
sVlisteriosis
p437
I3132
sV[linked] acquired metabolic disease
p438
I499
sVAIDS
p439
I3
sVH3N2
p440
I53
sV[linked] Ship fever
p441
I449
sV[linked] KIDNEY FAILURE
p442
I311
sV[linked] Joint ankylosis of the pelvic region and thigh
p443
I308
sV[linked] viral exanthem
p444
I1384
sVcannot eat
p445
I1865
sVingestion of food
p446
I2964
sVpleura
p447
I3645
sVcoccidioidomycosis
p448
I2009
sVpain in the chest
p449
I3527
sVH5N1
p450
I55
sV[linked] mild
p451
I1071
sVnew illness
p452
I3448
sVhydatidosis
p453
I2869
sVavian cholera
p454
I1613
sVstock
p455
I4138
sV[linked] sleep disorder
p456
I1307
sVscabies
p457
I3939
sVairy
p458
I1486
sVH7N7
p459
I56
sVadenovirus infection
p460
I1459
sVdogs
p461
I2276
sV[linked] Classical typhus (fever)
p462
I192
sVmutate
p463
I3372
sV[linked] botulism
p464
I629
sVintestine
p465
I2998
sVpurebred
p466
I3750
sVanuria
p467
I1546
sVBEF
p468
I12
sVpharyngitis
p469
I3606
sVhuman granulocytic ehrlichiosis
p470
I2849
sVwoody plant
p471
I4539
sVcardiac arrest
p472
I1875
sV[linked] animal hepatitis
p473
I536
sV[linked] bacterize
p474
I596
sVwestern equine encephalitis
p475
I4522
sV[linked] male genital cancer
p476
I1005
sVhistoplasmosis
p477
I2817
sVcolitis
p478
I2018
sV[linked] intestinal infectious disease
p479
I948
sVmarburg haemorrhagic fever
p480
I3225
sVanxiety
p481
I1548
sVhopping
p482
I2832
sVtyphus endemic
p483
I4370
sV[linked] Ovarian disorder
p484
I402
sVhike
p485
I2811
sVbloated
p486
I1707
sVmyxi
p487
I3396
sVtree
p488
I4334
sVmonotreme
p489
I3308
sVshower
p490
I4019
sVpneumonia
p491
I3652
sVpseudorabies
p492
I3731
sVplasmodium vivax
p493
I3642
sVh5n1 bird flu virus
p494
I2688
sVboil
p495
I1740
sVwest nile virus
p496
I4518
sV[linked] Hemorrhagic nephrosonephritis
p497
I271
sV[linked] male
p498
I1004
sV[linked] paranasal sinus disease
p499
I1170
sVblack death
p500
I1686
sV[linked] pteridophyte
p501
I1233
sVdonkey
p502
I2279
sVswollen tonsils
p503
I4224
sVnephritis
p504
I3429
sVlegionella
p505
I3092
sVanus
p506
I1547
sVchickens
p507
I1926
sVmyositis
p508
I3388
sV[linked] Mexican typhus
p509
I359
sVginger
p510
I2625
sVfoodborne
p511
I2563
sVraw
p512
I3798
sVrat
p513
I3796
sVlymphatic system
p514
I3190
sVlull
p515
I3172
sVthaw
p516
I4263
sVdischarge from the penis
p517
I2247
sVlettuce
p518
I3120
sVlegionella pneumophila
p519
I3095
sVvascular disease
p520
I4433
sVprofuse perspiration
p521
I3713
sVcactus
p522
I1843
sVspotted fever
p523
I4104
sVisolated
p524
I3008
sV[linked] stomach disease
p525
I1319
sValopecia
p526
I1508
sVchest
p527
I1916
sVrodents
p528
I3891
sV[linked] coccidiosis
p529
I684
sVprimate
p530
I3709
sV[linked] mosquito
p531
I1080
sVmastitis
p532
I3238
sVvision loss
p533
I4480
sV[linked] sputum
p534
I1317
sV[linked] Foodborne botulism
p535
I248
sVllamas
p536
I3150
sVunvaccinated
p537
I4402
sVtularemia
p538
I4357
sVcarcinoma
p539
I1874
sVtyphoid
p540
I4365
sVpowassan
p541
I3689
sVhypertension
p542
I2882
sV[linked] Louse-borne [epidemic] typhus
p543
I338
sVbovine tuberculosis
p544
I1766
sVcerebrovascular accident
p545
I1903
sV[linked] hematopoietic neoplasm
p546
I873
sV[linked] respiratory failure NOS
p547
I1268
sVciguatera poisoning
p548
I1971
sVparvovirus b19 infection
p549
I3569
sV[linked] Contact dermatitis NOS
p550
I202
sVcamp
p551
I1851
sVdog
p552
I2272
sVmuscle necrosis
p553
I3357
sVdoe
p554
I2271
sVswamp
p555
I4192
sVmedical coordinator
p556
I3247
sVkidneys
p557
I3044
sV[linked] tuberculous abscess
p558
I1357
sVpineapple
p559
I3623
sVdystonia
p560
I2311
sV[linked] systemic mastocytosis
p561
I1335
sVrectal prolapse
p562
I3801
sVdoves
p563
I2284
sVreserve
p564
I3827
sVaquatic
p565
I1562
sVlymphocytic choriomeningitis
p566
I3191
sVdiphtheria
p567
I2240
sVinsects
p568
I2975
sVdroppings
p569
I2291
sVsage
p570
I3911
sV[linked] vomiting
p571
I1391
sV[linked] malignant Retinal neoplasm
p572
I1014
sV[linked] thysanopter
p573
I1353
sVfennel
p574
I2498
sV[linked] succulent
p575
I1328
sVuneasiness
p576
I4391
sVveterinarians
p577
I4449
sV[linked] Idiopathic Interstitial Pneumonia
p578
I281
sVsand flies
p579
I3924
sVdrug addict
p580
I2296
sVsuperbug
p581
I4184
sV[linked] Impetigo NOS
p582
I284
sVchamomile
p583
I1910
sVherbivore
p584
I2794
sVchagas disease
p585
I1909
sVskin pigment changes
p586
I4048
sV[linked] hemic and immune system symptom
p587
I876
sVrales
p588
I3785
sVoyster
p589
I3517
sV[linked] Gastropathy
p590
I252
sVcelery
p591
I1893
sVcougar
p592
I2100
sVcoryza
p593
I2099
sVhematogenous
p594
I2746
sVloss of vision
p595
I3158
sV[linked] malignant hepato-biliary neoplasm
p596
I1021
sV[linked] cerebral degeneration
p597
I659
sVcocci
p598
I2007
sVhuman flu
p599
I2847
sV[linked] immune system symptom
p600
I919
sVappendicitis
p601
I1559
sV[linked] echinoderm
p602
I788
sVopisthorchiasis
p603
I3492
sVbruise
p604
I1804
sVsex workers
p605
I3995
sVscientists
p606
I3951
sVphysical wasting
p607
I3610
sVumbilical
p608
I4373
sV[linked] bile duct disorder NOS
p609
I607
sVcoast
p610
I2005
sVtongue disease
p611
I4302
sV[linked] Epidemic louse-borne typhus fever due to Rickettsia prowazekii
p612
I233
sVendophthalmitis
p613
I2378
sVchest pain
p614
I1918
sVhuman body
p615
I2843
sVtuberculosis
p616
I4356
sV[linked] bile duct disease
p617
I606
sVvenezuelan hemorrhagic fever
p618
I4439
sVfinfish
p619
I2517
sVunderlying medical illnesses
p620
I4382
sVepileptic seizure
p621
I2408
sVbat
p622
I1652
sVhuman immunodeficiency virus
p623
I2850
sV[linked] bestial
p624
I602
sVterrain
p625
I4255
sV[linked] optic nerve disorder
p626
I1153
sVbay
p627
I1654
sV[linked] dengue disease
p628
I723
sVdepressed
p629
I2217
sV[linked] demyelinating disorder
p630
I722
sVchagas
p631
I1908
sVpiggy
p632
I3621
sV[linked] gastrointestinal disorder
p633
I847
sVhuman immunodeficiency virus 2
p634
I2852
sVpus
p635
I3753
sVhuman immunodeficiency virus 1
p636
I2851
sVruins
p637
I3906
sVeye infection
p638
I2461
sVcataplexy
p639
I1883
sVcircling
p640
I1972
sVswine influenza a h1n1 virus
p641
I4215
sV[linked] chordate
p642
I664
sV[linked] domestic cat
p643
I779
sVtyphoid fever
p644
I4366
sVh5n1 flu virus
p645
I2690
sV[linked] disease of metabolism
p646
I747
sVarthropods
p647
I1582
sVnodules
p648
I3458
sVhemorrhagic colitis
p649
I2762
sVthroat pain
p650
I4274
sVswine flu
p651
I4211
sV[linked] Ocular tumor
p652
I391
sVenlarged spleen
p653
I2381
sV[linked] renal failure - chronic
p654
I1253
sVacute disseminated encephalomyelitis
p655
I1440
sVembryo
p656
I2361
sV[linked] candidiasis
p657
I645
sV[linked] disease of cellular proliferation
p658
I741
sVmycobacterium tuberculosis
p659
I3377
sVrift valley fever
p660
I3869
sV[linked] conjunctival disease
p661
I700
sVrare
p662
I3793
sVrocket
p663
I3884
sVfeline
p664
I2494
sV[linked] peripheral nervous system disease
p665
I1183
sVcontinent
p666
I2081
sV[linked] liver symptom
p667
I983
sVmdr tuberculosis
p668
I3241
sVsarcocystosis
p669
I3931
sVbacterial meningitis
p670
I1639
sVflagellate
p671
I2527
sVrodent infested
p672
I3890
sVLCMV
p673
I77
sVslugs
p674
I4065
sVlethargic
p675
I3118
sVasthenia
p676
I1592
sV[linked] Articular cartilage disorder of the upper arm
p677
I165
sVfood allergy
p678
I2561
sVconfusion
p679
I2038
sVneuritis
p680
I3436
sV[linked] arthropodal
p681
I570
sVterrace
p682
I4254
sVreovirus
p683
I3821
sV[linked] pediculosis
p684
I1178
sVseafood
p685
I3961
sVlarynx
p686
I3082
sVcut
p687
I2160
sVslaughtered
p688
I4056
sVrenal failure
p689
I3819
sVaftosa
p690
I1473
sVdrowsy
p691
I2294
sVbutchering
p692
I1836
sV[linked] Epithelioma, malignant
p693
I234
sVdecreased appetite
p694
I2187
sVpertussis
p695
I3593
sVcow
p696
I2108
sVanaemia
p697
I1523
sVfault
p698
I2485
sV[linked] insectan
p699
I939
sVhemolytic uremic syndrome
p700
I2759
sVacquired immune deficiency
p701
I1432
sVmicroflora
p702
I3277
sVchlorinated water
p703
I1948
sVdisinfected
p704
I2252
sVcontact with infected people
p705
I2063
sVsexually transmitted disease
p706
I3997
sVgiardia lamblia
p707
I2621
sVswimmer s itch
p708
I4206
sVchlamydia trachomatis
p709
I1944
sV[linked] wasting
p710
I1392
sV[linked] myopathy
p711
I1101
sV[linked] testicular disorder
p712
I1342
sV[linked] malignant tumor of male Reproductive system
p713
I1048
sVh3n2 virus
p714
I2685
sV[linked] auditory system disease
p715
I577
sVmouth disease
p716
I3325
sV[linked] nasal blockage
p717
I1105
sVfissures
p718
I2522
sVfall armyworm
p719
I2476
sVviruses
p720
I4478
sV[linked] infant symptom
p721
I928
sVbotulism poisoning
p722
I1757
sVincontinence
p723
I2910
sVpoor feeding
p724
I3676
sVephemeral fever
p725
I2400
sV[linked] ankylosis of lower leg joint
p726
I546
sV[linked] colonic disease
p727
I690
sVpupate
p728
I3747
sVgastrointestinal bleeding
p729
I2607
sV[linked] genital system disease
p730
I854
sV[linked] nervous system neoplasm
p731
I1131
sVparsley
p732
I3563
sVhand foot and mouth disease
p733
I2704
sVloss of balance
p734
I3155
sVarroyo
p735
I1577
sVVRE
p736
I121
sVbasil
p737
I1651
sVchronic obstructive lung disease
p738
I1965
sVpancreas
p739
I3537
sVencephalitozoon hellem
p740
I2371
sVcpk elevation
p741
I2113
sV[linked] Encephalitis/myelitis NOS
p742
I228
sVinappetence
p743
I2907
sVCM
p744
I25
sVstrep
p745
I4154
sVgreyhound
p746
I2656
sVworker
p747
I4540
sVCF
p748
I21
sVuncommon
p749
I4376
sVrespiratory paralysis
p750
I3837
sVcatchment
p751
I1887
sVlumpy skin disease virus
p752
I3174
sVerythema
p753
I2428
sVanisakis
p754
I1535
sVnervous system disease
p755
I3433
sVescherichia coli o157
p756
I2436
sV[linked] colon disorder
p757
I689
sVcalcified
p758
I1844
sVfowl cholera
p759
I2576
sVchill
p760
I1934
sVfruit bats
p761
I2585
sVant
p762
I1540
sVbronchopneumonia
p763
I1800
sVhpai h5n1
p764
I2840
sV[linked] cough
p765
I714
sVindian mound
p766
I2912
sV[linked] autosomal dominant disease
p767
I583
sVsoft ticks
p768
I4078
sVcutaneous anthrax
p769
I2162
sV[linked] anemia
p770
I534
sV[linked] influenza with non-respiratory manifestation
p771
I935
sVlizard
p772
I3147
sVherpes zoster
p773
I2801
sVmultiple organ failure
p774
I3345
sVflooding
p775
I2540
sVpain in the abdomen
p776
I3526
sV[linked] young mammal
p777
I1408
sV[linked] Lymphadenitis
p778
I344
sVtrypanosoma
p779
I4347
sVpot plant
p780
I3685
sVend stage renal disease
p781
I2374
sV[linked] annual
p782
I548
sV[linked] Granulocytopenia
p783
I255
sV[linked] chronic renal disease
p784
I677
sVescherichia coli o157 h7
p785
I2437
sVhealth official
p786
I2731
sVblood spots
p787
I1718
sVfence line
p788
I2497
sV[linked] anxiety disorder
p789
I551
sVdizzy
p790
I2266
sVlousy
p791
I3161
sV[linked] malignant neoplasm of kidney except pelvis
p792
I1029
sVmurine typhus
p793
I3350
sV[linked] bone marrow neoplasm
p794
I625
sVear disease
p795
I2320
sVmedical officers
p796
I3249
sVmouse
p797
I3323
sVtrade
p798
I4324
sVsleepiness
p799
I4060
sVabscess
p800
I1426
sVconfirmed
p801
I2035
sVross river virus
p802
I3895
sVinfluenza virus b
p803
I2958
sV[linked] sensation perception
p804
I1293
sVtrypanosomiasis
p805
I4349
sVbleeding heart
p806
I1701
sVh5n1 virus
p807
I2692
sVwound
p808
I4544
sVlymphangitis
p809
I3188
sVphaeohyphomycosis
p810
I3605
sVsinusitis
p811
I4037
sVcross contamination
p812
I2139
sV[linked] extrinsic allergic alveolitis
p813
I810
sVclassical swine fever
p814
I1982
sV[linked] fatigue
p815
I820
sVreptilian
p816
I3823
sV[linked] systemic tissue mast cell disease
p817
I1337
sVa h1n1 virus
p818
I1410
sVingested
p819
I2960
sVkarst
p820
I3033
sVmentally retarded
p821
I3268
sVpallor
p822
I3535
sV[linked] chronic obstructive asthma with status asthmaticus
p823
I675
sV[linked] bone marrow disease
p824
I623
sV[linked] cholecystitis
p825
I663
sVswell
p826
I4200
sVHPV
p827
I70
sVrain
p828
I3780
sVhand
p829
I2703
sVst louis encephalitis
p830
I4115
sVVS
p831
I122
sVVT
p832
I123
sVintracranial hypertension
p833
I2999
sVev 71
p834
I2440
sVtick borne encephalitis
p835
I4286
sV[linked] calmness
p836
I642
sV[linked] disorder of lymphoid system
p837
I761
sVantibiotic resistance
p838
I1545
sVwindy
p839
I4535
sVunidentified virus
p840
I4398
sVmeningococcal septicaemia
p841
I3262
sVsoak
p842
I4076
sV[linked] herbal
p843
I891
sVwater scarcity
p844
I4497
sV[linked] lens disease
p845
I966
sV[linked] Pneumoconiosis
p846
I411
sVsmoker
p847
I4071
sVmonkeys
p848
I3305
sVocean
p849
I3483
sVmultiple abscesses
p850
I3343
sV[linked] urinary system symptom
p851
I1372
sVARDS
p852
I7
sVcontact
p853
I2053
sV[linked] Genodermatosis
p854
I253
sV[linked] Unspecified conjunctivitis
p855
I473
sV[linked] rain
p856
I1243
sVcamps
p857
I1854
sV[linked] Keratitis NOS
p858
I313
sVjapanese encephalitis
p859
I3021
sVmacaque
p860
I3198
sVmethemoglobinemia
p861
I3273
sV[linked] thoracic disease
p862
I1347
sV[linked] dizziness
p863
I775
sV[linked] bone Marrow tumor
p864
I617
sVlow blood pressure
p865
I3165
sVsequestration
p866
I3978
sVprimary amebic meningoencephalitis
p867
I3707
sVmysterious new disease
p868
I3392
sVacute pneumonia
p869
I1452
sV[linked] bee
p870
I600
sVcaregiver
p871
I1880
sV[linked] stormy
p872
I1322
sV[linked] Atherosclerotic Cardiovascular disease
p873
I168
sVthyroid
p874
I4280
sVcervix
p875
I1906
sVstrangle
p876
I4149
sVfebrile convulsion
p877
I2488
sVRVF
p878
I107
sVblood in the sputum
p879
I1716
sV[linked] conjunctivitis
p880
I701
sVbulls eye rash
p881
I1820
sVhuman papillomavirus
p882
I2856
sVewes
p883
I2444
sVstreptococcus
p884
I4158
sV[linked] ischemia
p885
I951
sVanimal bite
p886
I1531
sV[linked] blood cancer
p887
I613
sV[linked] hyrax
p888
I915
sV[linked] muscular disease
p889
I1088
sVspasms
p890
I4092
sV[linked] skin rash
p891
I1305
sV[linked] coronary heart disease
p892
I713
sVroseola
p893
I3893
sV[linked] neoplasm of nervous system
p894
I1120
sV[linked] middle ear problem
p895
I1070
sVmuscle twitching
p896
I3364
sVfracture
p897
I2579
sVe coli
p898
I2313
sVzooplankton
p899
I4567
sV[linked] lack of coordination
p900
I959
sVenterobacter cloacae
p901
I2388
sV[linked] gastrointestinal system disease
p902
I849
sVbluetongue disease
p903
I1732
sVovercrowding
p904
I3515
sVforested
p905
I2574
sVcape
p906
I1866
sVlymphoma
p907
I3194
sV[linked] plexopathy
p908
I1202
sVtoxoplasma infection
p909
I4319
sV[linked] tauopathy
p910
I1340
sVplant hopper
p911
I3635
sVscavenger
p912
I3946
sVbreathing difficulty
p913
I1785
sVabnormal behavior
p914
I1422
sV[linked] tumor of male Reproductive system
p915
I1361
sVdiplopia
p916
I2241
sVmidge
p917
I3282
sVhunt
p918
I2859
sVquadriplegia
p919
I3761
sVvisna virus
p920
I4481
sV[linked] lymphoblastic leukemia
p921
I999
sVechinococcosis
p922
I2340
sVlabored breathing
p923
I3056
sVdengue
p924
I2206
sVmosquito
p925
I3312
sVmalnutrition
p926
I3216
sVacute flaccid paralysis
p927
I1442
sV[linked] game bird
p928
I843
sV[linked] hydatidosis
p929
I901
sVcrimean congo haemorrhagic fever
p930
I2130
sVconjunctival suffusion
p931
I2048
sVprolonged fever
p932
I3716
sV[linked] pervasive development disorder
p933
I1187
sVabscesses
p934
I1427
sVsars virus
p935
I3935
sVcreek
p936
I2123
sV[linked] Rhinitis
p937
I445
sV[linked] connective tissue disorder
p938
I704
sVdeaf
p939
I2179
sVelderly
p940
I2355
sVharmattan
p941
I2717
sVrhinitis
p942
I3855
sVcaptive
p943
I1870
sVgrowth retardation
p944
I2667
sVHL
p945
I67
sVescape
p946
I2431
sVpain
p947
I3525
sVbore
p948
I1750
sV[linked] gallbladder disease
p949
I842
sVHD
p950
I60
sVporcine epidemic diarrhea
p951
I3679
sV[linked] lymphadenitis
p952
I994
sVflavivirus
p953
I2530
sV[linked] lymphadenopathy
p954
I995
sVfanconi syndrome
p955
I2477
sVdense
p956
I2215
sVCOPD
p957
I26
sVp ovale
p958
I3522
sVblackleg
p959
I1690
sVgreat apes
p960
I2652
sVpain in the joints
p961
I3528
sVbloody urine
p962
I1725
sVstagnant pools
p963
I4119
sVgastrointestinal symptoms
p964
I2609
sV[linked] ear disease
p965
I782
sVpolio virus
p966
I3660
sV[linked] neuropathy
p967
I1137
sVinhalation anthrax
p968
I2967
sVplantain
p969
I3637
sV[linked] disease due to superfamily Filarioidea
p970
I739
sVliver cancer
p971
I3135
sV[linked] reovirus
p972
I1259
sVcommon mosquito
p973
I2030
sVhighly pathogenic avian influenza
p974
I2809
sV[linked] fasciitis
p975
I819
sVburn
p976
I1827
sVtrees
p977
I4336
sVCJD
p978
I24
sVclostridium difficile ribotype 027
p979
I1996
sV[linked] facial nerve disease
p980
I818
sV[linked] dry cough
p981
I780
sVcardiomyopathy
p982
I1876
sVpeep
p983
I3576
sVinvertebrate
p984
I3002
sVbury
p985
I1832
sVherpes
p986
I2797
sVblacklegged tick ixodes scapularis
p987
I1692
sV[linked] Liver disorder in pregnancy NOS
p988
I331
sVshivering
p989
I4010
sV[linked] Proteinuria
p990
I424
sV[linked] Myeloid neoplasm
p991
I374
sV[linked] pediculosis and phthirus infection
p992
I1179
sVeat
p993
I2328
sVinflamed eyes
p994
I2941
sVstool with blood
p995
I4144
sVcontact with the contaminated water
p996
I2068
sVhemiparesis
p997
I2751
sVVHF
p998
I120
sVmuscular disease
p999
I3367
sV[linked] air mass
p1000
I523
sVvector borne
p1001
I4436
sVcognitive disorders
p1002
I2013
sVinfant botulism
p1003
I2917
sVdespair
p1004
I2221
sV[linked] malignant neoplasm of retina
p1005
I1042
sVsurveillance
p1006
I4187
sV[linked] arthralgia
p1007
I564
sV[linked] hemoglobinopathies
p1008
I879
sValga
p1009
I1495
sVlow white blood cell count
p1010
I3169
sVneosporosis
p1011
I3428
sV[linked] Dermatitis, venenata NOS
p1012
I216
sVsick building syndrome
p1013
I4026
sVinfection in rodents
p1014
I2925
sV[linked] Moscow typhus
p1015
I360
sVrsv infection
p1016
I3900
sV[linked] influenza
p1017
I934
sV[linked] acute/subac. necrosis of liver
p1018
I518
sVwasting
p1019
I4496
sVstaphylococcus aureus
p1020
I4127
sVDEET
p1021
I30
sV[linked] hemolytic anemia
p1022
I881
sVchimp
p1023
I1936
sVmite infestation
p1024
I3298
sVfern
p1025
I2500
sV[linked] breakbone fever
p1026
I632
sVlaborers
p1027
I3058
sVbats
p1028
I1653
sVwhite tailed deer
p1029
I4527
sValveolar hydatid disease
p1030
I1513
sV[linked] CHF
p1031
I183
sVquery fever
p1032
I3767
sVyam
p1033
I4552
sVanorexic
p1034
I1539
sVanorexia
p1035
I1538
sVsepticemic plague
p1036
I3977
sVinfluenza in birds
p1037
I2953
sVnon productive cough
p1038
I3462
sVreddish face
p1039
I3810
sVlight sensitivity
p1040
I3125
sVsneezing
p1041
I4074
sVsprayings
p1042
I4107
sVgroundnut
p1043
I2660
sVsalmonella poisoning
p1044
I3920
sVenzootic abortion of ewes
p1045
I2398
sVdengue shock syndrome
p1046
I2212
sV[linked] keratitis
p1047
I955
sVthrips
p1048
I4272
sVchinchilla
p1049
I1940
sVlassa fever
p1050
I3083
sVhead
p1051
I2720
sVecchymosis
p1052
I2339
sV[linked] Liver disorder in pregnancy unspecified
p1053
I332
sV[linked] Joint ankylosis of the shoulder region
p1054
I309
sVurinary tract infection
p1055
I4413
sVmrsa infection
p1056
I3332
sVhiccups
p1057
I2804
sV[linked] Hemolytic anemias NOS
p1058
I267
sVrocky mountain spotted fever
p1059
I3885
sV[linked] disease of lympoid system
p1060
I745
sVbrucella
p1061
I1802
sVford
p1062
I2571
sVpeninsula
p1063
I3579
sVreye syndrome
p1064
I3849
sV[linked] Typhus
p1065
I469
sVsalmonella infection
p1066
I3919
sVpustule
p1067
I3754
sVplateau
p1068
I3644
sVhyperthyroidism
p1069
I2884
sV[linked] arteriosclerotic cardiovascular disease
p1070
I562
sVlegionnaire s disease
p1071
I3097
sVcrows
p1072
I2144
sVmyopia
p1073
I3387
sVcholangitis
p1074
I1950
sV[linked] Inflammatory disorder of bone
p1075
I294
sVintestinal anthrax
p1076
I2991
sVcontaminated food
p1077
I2077
sV[linked] paralysis
p1078
I1169
sVsnails
p1079
I4073
sV[linked] dermatitis
p1080
I724
sV[linked] Spondyloarthropathy
p1081
I453
sVbody aches
p1082
I1736
sVseoul virus
p1083
I3971
sV[linked] chronic respiratory failure
p1084
I679
sVbreathe
p1085
I1783
sVintestinal bleeding
p1086
I2992
sV[linked] vision symptom
p1087
I1389
sVaorta
p1088
I1550
sVhydrocephalus
p1089
I2871
sVafrican sleeping sickness
p1090
I1468
sVloss of appetite
p1091
I3154
sVmuscular
p1092
I3366
sVfilly
p1093
I2514
sVporcine epidemic diarrhea virus
p1094
I3680
sV[linked] alveolitis
p1095
I532
sV[linked] disorder of testis
p1096
I770
sV[linked] nerve sheath tumor [dup]
p1097
I1127
sV[linked] allergy
p1098
I529
sVredness of the eyes
p1099
I3812
sVdealer
p1100
I2181
sV[linked] feces and droppings symptom
p1101
I823
sV[linked] insect
p1102
I938
sV[linked] dictyopterous insect
p1103
I731
sVshigella
p1104
I4005
sVmelanoma
p1105
I3253
sVlungs
p1106
I3178
sVground surface
p1107
I2659
sVglacier
p1108
I2626
sV[linked] spotted fever
p1109
I1316
sV[linked] hypertension
p1110
I912
sV[linked] bone disease
p1111
I619
sV[linked] speech disorder
p1112
I1312
sVflood
p1113
I2537
sVdifficult to breathe
p1114
I2231
sV[linked] hereditary hemolytic anemia
p1115
I892
sVcreep
p1116
I2124
sVsore eyes
p1117
I4083
sVpolyuria
p1118
I3668
sVnon human primates
p1119
I3459
sVsevere diarrhea
p1120
I3985
sVcerebral dysfunction
p1121
I1900
sVwombat
p1122
I4537
sVanthrax disease
p1123
I1543
sV[linked] primary liver cancer
p1124
I1216
sVardeids
p1125
I1569
sV[linked] nerve sheath tumors
p1126
I1128
sVblood in stool
p1127
I1715
sVsesame
p1128
I3981
sV[linked] female reproductive system disease
p1129
I828
sVtetanus
p1130
I4261
sVinfectious bovine rhinotracheitis
p1131
I2929
sVdischarge
p1132
I2245
sVcontact with animals
p1133
I2058
sV[linked] pachydermous
p1134
I1166
sVhygienic
p1135
I2874
sV[linked] animal virus
p1136
I537
sV[linked] thyroid gland disease
p1137
I1352
sV[linked] lymphoid cancer
p1138
I1000
sVmucous membrane
p1139
I3337
sVmosquito borne
p1140
I3314
sV[linked] malignant neoplasm of male genital organ, site unspecified
p1141
I1038
sV[linked] Opportunistic mycosis
p1142
I393
sV[linked] ankylosis of upper arm joint
p1143
I547
sV[linked] disease of subdivision of hemolymphoid system
p1144
I748
sVhemorrhagic disease
p1145
I2763
sVanalgesia
p1146
I1524
sVcanines
p1147
I1863
sV[linked] alga
p1148
I526
sV[linked] vasculitis
p1149
I1380
sVgorilla
p1150
I2644
sVrough
p1151
I3898
sVsevere infection
p1152
I3988
sVpuppy
p1153
I3748
sV[linked] voice disturbance
p1154
I1390
sValmanac
p1155
I1506
sV[linked] kidney failure
p1156
I958
sV[linked] malignant tumor of male genital organ
p1157
I1049
sVonchocerciasis
p1158
I3488
sV[linked] caterpillar
p1159
I653
sVcannot breathe
p1160
I1864
sVveterinary
p1161
I4450
sVlymphatic
p1162
I3189
sVfox
p1163
I2577
sVhospital worker
p1164
I2836
sVrod
p1165
I3887
sVamerican trypanosomiasis
p1166
I1518
sVvibrio cholerae
p1167
I4453
sVsalivation
p1168
I3915
sV[linked] weed
p1169
I1396
sVmild
p1170
I3286
sVdarkening of skin
p1171
I2175
sVasymptomatic
p1172
I1595
sVactinomyces
p1173
I1435
sVskin
p1174
I4039
sV[linked] Louse infestation
p1175
I336
sV[linked] mixed pediculosis infestation
p1176
I1076
sV[linked] Tuberculosis pregnancy
p1177
I465
sVblackleg infection
p1178
I1691
sV[linked] ankylosis of joint of shoulder region
p1179
I545
sV[linked] Arteriosclerotic vascular disease NOS
p1180
I147
sVpublic awareness campaign
p1181
I3735
sVgrape
p1182
I2649
sV[linked] Echinococcosis of liver
p1183
I224
sVcompartment syndrome
p1184
I2034
sVscarlet fever
p1185
I3944
sVlameness
p1186
I3071
sV[linked] Madras eye
p1187
I349
sV[linked] Articular cartilage disorder involving hand
p1188
I150
sV[linked] Connective tissue dis.
p1189
I198
sV[linked] myocardial ischemia
p1190
I1100
sVreptile
p1191
I3822
sVtonsillitis
p1192
I4303
sV[linked] respiratory failure NOS (context-dependent category)
p1193
I1269
sVLHF
p1194
I78
sVwetland
p1195
I4524
sVvet
p1196
I4447
sVstrep disease
p1197
I4155
sVcoot
p1198
I2087
sV[linked] postpartum coagulation defect with delivery
p1199
I1210
sVracer
p1200
I3779
sVasthmatic
p1201
I1594
sVnephropathy
p1202
I3431
sVcorneal opacity
p1203
I2090
sV[linked] primary malignant neoplasm of bone marrow
p1204
I1218
sValcoholics
p1205
I1492
sVbark beetle
p1206
I1647
sV[linked] middle ear disease
p1207
I1067
sVhiv negative
p1208
I2820
sVpseudomembranous colitis
p1209
I3730
sVco infected
p1210
I2001
sV[linked] acute-on-chronic respiratory failure
p1211
I517
sVneck stiffness
p1212
I3415
sV[linked] Infection due to Clostridium tetani
p1213
I289
sV[linked] gastrointestinal disease
p1214
I846
sVthoracic cavity
p1215
I4269
sV[linked] Typhus fever NOS
p1216
I472
sV[linked] digestive system cancer
p1217
I732
sVstandards
p1218
I4122
sVcrustacean
p1219
I2145
sVeosinophilia
p1220
I2399
sVchronic kidney failure
p1221
I1964
sVgut
p1222
I2680
sVchief minister
p1223
I1927
sV[linked] dipterous insect
p1224
I737
sVnipah
p1225
I3455
sVdiarrhoea
p1226
I2230
sVleptospira
p1227
I3113
sVlantana
p1228
I3076
sVhepatitis
p1229
I2775
sVunpasteurized
p1230
I4399
sVacinetobacter baumannii
p1231
I1430
sVhack
p1232
I2693
sVqueensland tick typhus
p1233
I3766
sVparvovirus
p1234
I3568
sVsarcoptic mange
p1235
I3932
sV[linked] cutaneous T cell lymphoma
p1236
I717
sVhiv aids
p1237
I2818
sV[linked] arthropathy
p1238
I567
sVyersiniosis
p1239
I4562
sVsoldiers
p1240
I4081
sVbacterial
p1241
I1636
sVhospital workers
p1242
I2837
sVbolivian hemorrhagic fever
p1243
I1743
sVbacteria
p1244
I1635
sVcolic
p1245
I2017
sVsabia virus
p1246
I3910
sVeducate
p1247
I2345
sV[linked] normocytic anemia
p1248
I1142
sVepizootic surveillance
p1249
I2413
sVdistension
p1250
I2261
sVacidosis
p1251
I1429
sVcontact with infected animals
p1252
I2061
sVblood in the urine
p1253
I1717
sVehrlichiosis
p1254
I2353
sVneurological symptoms
p1255
I3444
sV[linked] Hematological tumors
p1256
I264
sVwest nile virus encephalitis
p1257
I4519
sVoriental sore
p1258
I3503
sVplexopathy
p1259
I3649
sV[linked] plant
p1260
I1195
sVhuman ehrlichiosis
p1261
I2844
sV[linked] Intoxication with Clostridium botulinum toxin
p1262
I301
sVcrimean fever
p1263
I2134
sVrubeola
p1264
I3903
sVorangutans
p1265
I3498
sVwild poliovirus type 3
p1266
I4531
sVmunicipality
p1267
I3348
sVwild poliovirus type 1
p1268
I4530
sVnonhuman primates
p1269
I3466
sV[linked] Induced malaria
p1270
I286
sVDSS
p1271
I36
sVequine herpes virus
p1272
I2418
sVchest tightness
p1273
I1919
sV[linked] classic dengue
p1274
I680
sV[linked] Pyelitis NOS
p1275
I430
sVcchf virus
p1276
I1892
sV[linked] psychophysiologic disorder
p1277
I1230
sVhealth sector personnel
p1278
I2733
sV[linked] diarrhea
p1279
I728
sVchange
p1280
I1912
sVriver blindness
p1281
I3880
sVMD
p1282
I83
sV[linked] contact dermatitis
p1283
I706
sV[linked] substance dependence
p1284
I1326
sVstormy
p1285
I4146
sV[linked] Non-neoplastic Reproductive system disease
p1286
I384
sV[linked] eye neoplasm
p1287
I815
sVvalley
p1288
I4422
sVbruises
p1289
I1805
sVbot
p1290
I1754
sVlatent syphilis
p1291
I3088
sVcorynebacterium
p1292
I2097
sVgovernment unit
p1293
I2647
sV[linked] Ankylosis of joint of multiple sites
p1294
I137
sVtb illness
p1295
I4240
sV[linked] wilding
p1296
I1402
sV[linked] mastigophora infectious disease
p1297
I1057
sVfifth disease
p1298
I2511
sVflu
p1299
I2543
sV[linked] disorder of ear
p1300
I754
sV[linked] IPF
p1301
I280
sVpericarditis
p1302
I3582
sV[linked] large intestine cancer
p1303
I961
sV[linked] picornavirus
p1304
I1191
sVpancreatitis
p1305
I3538
sVDON
p1306
I35
sVdeer flies
p1307
I2191
sVhiking
p1308
I2813
sVextra
p1309
I2455
sVpemphigoid
p1310
I3577
sVstrange disease
p1311
I4147
sV[linked] precipitation
p1312
I1213
sVa vein
p1313
I1416
sVbullock
p1314
I1819
sV[linked] heart valve disease
p1315
I869
sVepididymitis
p1316
I2404
sVpopulation movement
p1317
I3677
sVstridor
p1318
I4162
sVparalyzed
p1319
I3548
sVmeningococcal meningitis
p1320
I3261
sVsalmonella enterica
p1321
I3917
sVatrocious
p1322
I1600
sVs typhi
p1323
I3909
sVlansing
p1324
I3075
sVmedical officer
p1325
I3248
sVclose contacts
p1326
I1989
sVmarket
p1327
I3232
sVsweating
p1328
I4197
sVchikungunya virus
p1329
I1931
sVbacillary
p1330
I1628
sV[linked] echinococcal disease
p1331
I786
sV[linked] Typhus fever
p1332
I471
sVchimps
p1333
I1939
sVintense
p1334
I2984
sVflying fox
p1335
I2550
sVkoplik s spots
p1336
I3052
sV[linked] integumentary system cancer
p1337
I942
sVrabbit hemorrhagic disease
p1338
I3770
sV[linked] Leishmaniasis NOS
p1339
I317
sVtachycardia
p1340
I4235
sV[linked] nephritis
p1341
I1123
sVdemyelinating polyneuropathy
p1342
I2205
sVinvasive aspergillosis
p1343
I3001
sVkeratitis
p1344
I3035
sVCBPP
p1345
I17
sVmydriasis
p1346
I3380
sVbioterrorism
p1347
I1671
sVmaggots
p1348
I3209
sV[linked] mouth bleeding
p1349
I1081
sV[linked] salivary gland symptom
p1350
I1287
sV[linked] female
p1351
I825
sVappendix
p1352
I1560
sV[linked] disorder of the second nerve
p1353
I772
sVmysterious virus
p1354
I3393
sV[linked] Retinal disorder
p1355
I443
sV[linked] skin and subcutaneous tissue disease
p1356
I1300
sV[linked] food allergy
p1357
I836
sV[linked] colorectal cancer
p1358
I691
sV[linked] Unspecified myeloid leukemia without mention of remission
p1359
I479
sVupper respiratory tract disease
p1360
I4405
sVequine viral arteritis
p1361
I2425
sVautumn
p1362
I1609
sVcows
p1363
I2109
sVcryptococcosis
p1364
I2148
sV[linked] organ system cancer
p1365
I1155
sV[linked] throat symptom
p1366
I1350
sVabortion
p1367
I1424
sVlow birth weight
p1368
I3164
sVcutaneous
p1369
I2161
sV[linked] sarcomastigophora infectious disease
p1370
I1289
sVcontact with animal
p1371
I2057
sVweevil
p1372
I4512
sVdisinfection
p1373
I2253
sVSARS
p1374
I108
sV[linked] westerly
p1375
I1400
sVbites
p1376
I1680
sVribs
p1377
I3860
sVmosquitoborne viral disease
p1378
I3316
sVheart
p1379
I2737
sVosteosarcoma
p1380
I3507
sVgolden algae
p1381
I2635
sVstream
p1382
I4153
sV[linked] Other musculoskelet/connectiv
p1383
I397
sVh influenzae
p1384
I2681
sVcamelids
p1385
I1849
sVsalmonella food poisoning
p1386
I3918
sVconfused
p1387
I2037
sVstaph
p1388
I4123
sVafrican horse sickness
p1389
I1467
sVstroke
p1390
I4163
sVpond
p1391
I3669
sVredness
p1392
I3811
sVpartial paralysis
p1393
I3565
sV[linked] ischemic bone disease
p1394
I952
sV[linked] calm
p1395
I641
sVurticaria
p1396
I4414
sVremittent fever
p1397
I3816
sV[linked] articular cartilage disease
p1398
I571
sVcoyotes
p1399
I2112
sVhematoma
p1400
I2749
sVebola hemorrhagic fever
p1401
I2335
sVhepatitis b virus
p1402
I2780
sV[linked] Inflammatory disorder of joint
p1403
I295
sVhypersensitivity
p1404
I2881
sVIBV
p1405
I72
sVscratch
p1406
I3953
sV[linked] malignant eye neoplasm
p1407
I1019
sV[linked] Hydrocephalus, X-linked
p1408
I277
sVdysuria
p1409
I2312
sVcoronary heart disease
p1410
I2092
sVSTD
p1411
I112
sVcarbuncle
p1412
I1873
sVbiennial
p1413
I1665
sVnon reporting
p1414
I3463
sVsystemic lupus erythematosus
p1415
I4232
sVmaggot
p1416
I3208
sVunconsciousness
p1417
I4378
sVfoodborne illness
p1418
I2565
sV[linked] nervous system cancer
p1419
I1129
sVSTI
p1420
I113
sVmalta fever
p1421
I3217
sVrespiratory failure
p1422
I3834
sVlepromatous leprosy
p1423
I3111
sV[linked] bacterial enteritis
p1424
I590
sVmuskrats
p1425
I3370
sVgenetic skin disease
p1426
I2615
sVdropsy
p1427
I2292
sVinfection in infants
p1428
I2924
sVdove
p1429
I2283
sVtenesmus
p1430
I4250
sV[linked] Proteinuria (context-dependent category)
p1431
I425
sVbitten
p1432
I1682
sVtemperate
p1433
I4248
sV[linked] Syphilis
p1434
I456
sVneck
p1435
I3413
sVparasitologist
p1436
I3553
sVvirus infection
p1437
I4477
sVswine flu virus
p1438
I4213
sVst
p1439
I4114
sVcascade
p1440
I1882
sV[linked] malignant bone Marrow tumor
p1441
I1015
sVlagoon
p1442
I3068
sVswollen
p1443
I4219
sV[linked] Lymphatic disease
p1444
I347
sVmange
p1445
I3222
sVkuru
p1446
I3053
sVsymptomless
p1447
I4227
sV[linked] blindness
p1448
I611
sV[linked] chronic lymphadenitis any lymph node, except mesenteric
p1449
I671
sVanimal borne
p1450
I1532
sVliver inflammation
p1451
I3143
sV[linked] animalize
p1452
I539
sVcolt
p1453
I2024
sVepilepsy
p1454
I2407
sVequid
p1455
I2415
sVmeningococcus
p1456
I3264
sVviral hepatitis
p1457
I4468
sV[linked] Joint ankylosis of the ankle and/or foot
p1458
I304
sV[linked] insectivore
p1459
I940
sV[linked] vine
p1460
I1382
sVinfestation by fly larvae
p1461
I2939
sVcold
p1462
I2014
sVboreal
p1463
I1751
sVbirds
p1464
I1676
sV[linked] Liver and Intrahepatic bile duct carcinoma
p1465
I326
sVmicroorganism
p1466
I3278
sVbovine anaplasmosis
p1467
I1760
sV[linked] cell type cancer
p1468
I656
sVapes
p1469
I1554
sVRP
p1470
I103
sVundiagnosed fatal disease
p1471
I4386
sV[linked] Dyspraxia
p1472
I222
sVnymph
p1473
I3476
sVdengue disease
p1474
I2207
sVrash
p1475
I3795
sVswine erysipelas
p1476
I4209
sVbedbug
p1477
I1658
sVpreviously unknown disease
p1478
I3705
sV[linked] parotid disease
p1479
I1177
sVcryptosporidium
p1480
I2151
sVRB
p1481
I99
sVdeafness
p1482
I2180
sV[linked] coelenterate
p1483
I685
sV[linked] arbovirus infectious disease
p1484
I559
sV[linked] kidney cancer
p1485
I956
sVoral cavity
p1486
I3495
sV[linked] peripheral nerve disease
p1487
I1182
sVphotophobia
p1488
I3609
sVundiagnosed
p1489
I4384
sVhay fever
p1490
I2719
sVpharynx
p1491
I3607
sVinsomnia
p1492
I2977
sVweak cry
p1493
I4504
sVkala azar
p1494
I3032
sVscaling
p1495
I3941
sVcontact with infected poultry
p1496
I2064
sV[linked] renal failure, unspecified
p1497
I1257
sVgreen algae
p1498
I2654
sV[linked] hepatic echinococcosis
p1499
I886
sV[linked] integumentary system disease
p1500
I943
sVleopards
p1501
I3110
sVkilled
p1502
I3046
sV[linked] Other myeloid leukemia in remission
p1503
I400
sVstrangles
p1504
I4150
sV[linked] headache
p1505
I867
sV[linked] pachydermatous
p1506
I1164
sVh5n1 disease
p1507
I2689
sV[linked] apnea
p1508
I555
sVcrypto
p1509
I2147
sVgrasshopper mice
p1510
I2651
sVhemoptysis
p1511
I2760
sVlegume
p1512
I3100
sVmigrate
p1513
I3285
sVcoagulation
p1514
I2003
sVfisherman
p1515
I2521
sV[linked] HFRS
p1516
I258
sVserratia marcescens
p1517
I3980
sVmarmot
p1518
I3233
sVturtle
p1519
I4362
sVgonococcal infection
p1520
I2638
sVgrouse
p1521
I2664
sV[linked] clostridial tetanus
p1522
I683
sV[linked] Hematological disease
p1523
I263
sV[linked] coronary arteriosclerosis
p1524
I711
sV[linked] congenital nervous system abnormality
p1525
I696
sVlymphocytic meningitis
p1526
I3193
sV[linked] pupil symptom
p1527
I1235
sV[linked] GIT disease
p1528
I250
sVbeetle
p1529
I1660
sVsheep pox
p1530
I4003
sVpneumonic plague
p1531
I3653
sVoedema
p1532
I3484
sVfacial swelling
p1533
I2469
sVplasmodium
p1534
I3639
sVrhinovirus
p1535
I3859
sV[linked] bone tumour
p1536
I628
sVvesicular stomatitis virus
p1537
I4445
sVinfectious salmon anemia
p1538
I2936
sVp falciparum
p1539
I3520
sV[linked] autism spectrum disorder
p1540
I578
sVhand foot mouth disease
p1541
I2705
sVdehydrated
p1542
I2199
sVcyclonic
p1543
I2168
sV[linked] acute and chronic cholecystitis
p1544
I502
sVmyeloma
p1545
I3383
sV[linked] endemic flea-borne typhus
p1546
I796
sVbison
p1547
I1677
sVbubo
p1548
I1807
sVpasteurellosis
p1549
I3570
sVclover
p1550
I2000
sV[linked] Viral infection, unspecified
p1551
I488
sV[linked] SMCD - systemic mast cell disease
p1552
I447
sVhepatobiliary system
p1553
I2788
sVpig flu
p1554
I3618
sVcolony collapse disorder
p1555
I2022
sVpathogenic
p1556
I3573
sV[linked] mast cell hyperplasia
p1557
I1056
sVcranial nerve palsies
p1558
I2120
sV[linked] inclement
p1559
I925
sV[linked] Myeloid leukaemia (category)
p1560
I365
sV[linked] Pediculosis + lice NOS
p1561
I403
sV[linked] rectal disease
p1562
I1247
sV[linked] ankylosis of forearm joint
p1563
I541
sVpremature labor
p1564
I3702
sVorf
p1565
I3501
sV[linked] Exanthematic Typhus fever NOS
p1566
I236
sV[linked] floral
p1567
I833
sV[linked] malignant neoplasm of large intestine, NOS
p1568
I1031
sVstomach ache
p1569
I4140
sVrecumbency
p1570
I3804
sVfacial paralysis
p1571
I2468
sVbitterroot
p1572
I1683
sVteachers
p1573
I4243
sVfactory workers
p1574
I2471
sVzoster virus
p1575
I4569
sV[linked] Botulism
p1576
I175
sVinternal hemorrhage
p1577
I2988
sVunprotected sex
p1578
I4400
sVbird flu virus
p1579
I1675
sVpublic health official
p1580
I3736
sV[linked] parasitemia
p1581
I1172
sVplace
p1582
I3629
sVmassive
p1583
I3237
sVsandfly fever sicilian virus
p1584
I3928
sVvineyard
p1585
I4459
sVoropouche
p1586
I3505
sV[linked] Myeloid leukemia NOS
p1587
I367
sVcontact with infected birds
p1588
I2062
sVmountain lion
p1589
I3322
sVmalnourished
p1590
I3215
sV[linked] Spongiform Encephalopathy
p1591
I454
sV[linked] Pneumoconiosis NOS
p1592
I412
sV[linked] head and neck symptom
p1593
I865
sVchronic hepatitis c
p1594
I1963
sVMERS
p1595
I85
sV[linked] renal failure unspecified
p1596
I1256
sVcur
p1597
I2159
sV[linked] sleep disturbance
p1598
I1308
sVdead body
p1599
I2177
sV[linked] Influenza with other manifestations NOS
p1600
I299
sV[linked] coordination symptom
p1601
I708
sVliver disease
p1602
I3137
sVcroup
p1603
I2140
sV[linked] Myeloid leukemia, disease
p1604
I370
sVISA
p1605
I73
sVlegionellosis
p1606
I3096
sV[linked] CHD (coronary heart disease)
p1607
I181
sVsheep
p1608
I4002
sV[linked] Pediculosis and phthirus infection NOS
p1609
I404
sVspleen
p1610
I4098
sVaedes
p1611
I1463
sVmurky
p1612
I3351
sVbite
p1613
I1678
sVEIAV
p1614
I43
sVlymphadenopathy
p1615
I3187
sVclose contact
p1616
I1988
sV[linked] chronic Lymphadenitis
p1617
I665
sVzoonotic
p1618
I4566
sVingestion of contaminated food
p1619
I2963
sVleptospirosis
p1620
I3114
sVdraft
p1621
I2286
sVenzootic abortion
p1622
I2397
sVonychomadesis
p1623
I3489
sV[linked] spermatophyte
p1624
I1313
sVbushy
p1625
I1834
sVebola fever
p1626
I2333
sV[linked] Viral meningitis NOS
p1627
I490
sVdifficulty in swallowing
p1628
I2236
sVparatyphoid
p1629
I3555
sVstarfish
p1630
I4128
sVpuumala virus
p1631
I3755
sVseason
p1632
I3962
sV[linked] abnormal chest sound
p1633
I495
sVPDR
p1634
I94
sVprairie dog
p1635
I3692
sV[linked] retinal cell cancer
p1636
I1277
sV[linked] homopterous insect
p1637
I897
sVpersonality changes
p1638
I3591
sV[linked] Megacolon excluding Hirschsprung's disease
p1639
I354
sV[linked] nervous system disease
p1640
I1130
sVbank vole
p1641
I1645
sVinfiltrate
p1642
I2940
sVpapular rash
p1643
I3542
sVassassin bug
p1644
I1591
sVclassical swine fever virus
p1645
I1983
sViceberg
p1646
I2893
sVbrain injury
p1647
I1773
sV[linked] general symptom
p1648
I851
sVcoati
p1649
I2006
sVmyalgia
p1650
I3374
sVskin anthrax
p1651
I4041
sV[linked] Cardiac Failure Congestive
p1652
I187
sVlegacy
p1653
I3091
sVaphthous fever
p1654
I1556
sV[linked] Uveal disorder
p1655
I483
sV[linked] liver carcinoma
p1656
I978
sVpoisoning
p1657
I3657
sVfruit bat
p1658
I2584
sVneonate
p1659
I3425
sVdeer ticks
p1660
I2196
sV[linked] malignant neoplasm of the extrahepatic bile duct
p1661
I1043
sVorgan failure
p1662
I3502
sV[linked] osseous tumor
p1663
I1157
sV[linked] filariasis
p1664
I830
sV[linked] male reproductive organ cancer
p1665
I1008
sVlice
p1666
I3124
sVperitonitis
p1667
I3588
sV[linked] ehrlichiosis
p1668
I791
sVarachnid
p1669
I1563
sV[linked] autosomal recessive disease
p1670
I585
sVicterus
p1671
I2895
sVperipheral neuropathy
p1672
I3586
sVsevere acute respiratory syndrome
p1673
I3982
sVneonatal tetanus
p1674
I3424
sVmuscle pain
p1675
I3358
sVmild conjunctivitis
p1676
I3288
sV[linked] weather
p1677
I1395
sV[linked] Other chronic dermatitis due to solar radiation
p1678
I395
sV[linked] acute hepatitis
p1679
I510
sV[linked] malignant intestinal tumors
p1680
I1022
sV[linked] resectable malignant neoplasm of the liver
p1681
I1263
sVHEV71
p1682
I61
sV[linked] sputum production
p1683
I1318
sV[linked] bad weather
p1684
I597
sVh5n1 avian flu virus
p1685
I2686
sV[linked] bullous skin disease
p1686
I639
sVcrimean congo hem fever
p1687
I2132
sVneutropenia
p1688
I3447
sVabdominal distension
p1689
I1419
sV[linked] Unspecified viral meningitis
p1690
I481
sVavian influenza
p1691
I1616
sVgangrene
p1692
I2596
sVstenotrophomonas maltophilia
p1693
I4132
sVhyperemia
p1694
I2877
sVdown syndrome
p1695
I2285
sV[linked] head symptom
p1696
I866
sVchannel
p1697
I1914
sVbutterfly
p1698
I1839
sVmorbillivirus
p1699
I3311
sVtent caterpillar
p1700
I4252
sVretina
p1701
I3844
sVlow back pain
p1702
I3163
sV[linked] Ectoparasitic disease
p1703
I226
sV[linked] breeze
p1704
I634
sVtick borne encephalitis virus
p1705
I4287
sVDHF
p1706
I33
sVrock hyrax
p1707
I3883
sVcoleus
p1708
I2016
sVitchy skin
p1709
I3015
sVnon insulin dependent diabetes mellitus
p1710
I3461
sV[linked] herpes
p1711
I893
sV[linked] chronic myocardial ischaemia
p1712
I672
sV[linked] flavivirus
p1713
I832
sVknee
p1714
I3051
sVplasmodium vivax malaria
p1715
I3643
sVslums
p1716
I4067
sV[linked] disorder of cranial nerve
p1717
I753
sVvirologist
p1718
I4474
sVescherichia coli infection
p1719
I2435
sV[linked] chronic cholecystitis
p1720
I667
sVlower respiratory tract infection
p1721
I3171
sVvibriosis
p1722
I4456
sVpareses
p1723
I3558
sV[linked] intracranial hypertension
p1724
I949
sV[linked] hypersensitivity pneumonitis
p1725
I908
sV[linked] light sensitivity
p1726
I975
sV[linked] male genital neoplasm
p1727
I1006
sV[linked] post-kala-azar dermal infectious disease by leishmaniasis
p1728
I1208
sV[linked] primary malignant neoplasm of liver
p1729
I1219
sVtoxic shock
p1730
I4314
sV[linked] Other myeloid leukemia
p1731
I398
sVpowassan encephalitis
p1732
I3690
sVbreathing fast
p1733
I1786
sVhedgehog
p1734
I2743
sV[linked] ILD
p1735
I279
sV[linked] uvea disorder
p1736
I1374
sV[linked] ca liver - primary
p1737
I640
sVslope
p1738
I4062
sVkidney stones
p1739
I3043
sVarachnoid
p1740
I1564
sVchemical pneumonitis
p1741
I1915
sV[linked] opportunistic mycosis
p1742
I1150
sV[linked] Articular cartilage disorder of forearm
p1743
I156
sV[linked] Opportunistic mycoses
p1744
I392
sVinfant
p1745
I2916
sVrenal involvement
p1746
I3820
sVmucosa
p1747
I3335
sVfecal
p1748
I2489
sVcerebral malaria
p1749
I1901
sVhepatic cancer
p1750
I2772
sV[linked] rainy season
p1751
I1245
sVtiredness
p1752
I4297
sVblindness
p1753
I1703
sVhematological diseases
p1754
I2748
sVflank pain
p1755
I2528
sVmonkeypox
p1756
I3304
sV[linked] obesity
p1757
I1147
sVtestis
p1758
I4260
sVdyspnea
p1759
I2309
sVleguminous
p1760
I3101
sVgulf
p1761
I2676
sV[linked] autosomal genetic disease
p1762
I584
sVgourd
p1763
I2646
sVhares
p1764
I2716
sV[linked] pachydermic
p1765
I1165
sV[linked] HIV infection
p1766
I259
sVlymph node
p1767
I3184
sV[linked] artery disease
p1768
I563
sVarthropod
p1769
I1581
sVmaculopapular
p1770
I3203
sVhoof and mouth disease
p1771
I2829
sVLTBI
p1772
I81
sV[linked] bowel dysfunction
p1773
I630
sV[linked] Brain degeneration
p1774
I177
sVbreeding season
p1775
I1792
sVp vivax
p1776
I3523
sV[linked] Herpesvirus hominis disease
p1777
I272
sVstay
p1778
I4129
sVyear
p1779
I4553
sVlassa virus
p1780
I3084
sV[linked] virus infection
p1781
I1388
sV[linked] disease by infectious agent
p1782
I738
sVfungal infection
p1783
I2588
sVcoxiella burnetii
p1784
I2110
sV[linked] blood platelet disease
p1785
I616
sVrectal tenesmus
p1786
I3802
sV[linked] Destruction - ear drum
p1787
I217
sVhoya
p1788
I2839
sVflaviviridae
p1789
I2529
sVthree day sickness
p1790
I4271
sV[linked] tumor of thorax
p1791
I1363
sV[linked] Beef tapeworm infection
p1792
I170
sVhedge
p1793
I2742
sVbrit
p1794
I1795
sVxdr tuberculosis
p1795
I4547
sVboundary
p1796
I1758
sVHAV
p1797
I58
sVe coli o157
p1798
I2315
sV[linked] stuffed up nose
p1799
I1323
sVpinnacle
p1800
I3626
sVskull
p1801
I4052
sVfloods
p1802
I2541
sVparasitic
p1803
I3552
sV[linked] eye symptom
p1804
I817
sVscientist
p1805
I3950
sV[linked] retinal degeneration
p1806
I1278
sVcervical cancer
p1807
I1904
sVsubcutaneous tissues
p1808
I4173
sV[linked] fecal incontinence
p1809
I822
sVrheumatic disease
p1810
I3851
sVbiting midge
p1811
I1681
sV[linked] skeletal disease
p1812
I1297
sV[linked] Normocytic anemia
p1813
I389
sVlethargy
p1814
I3119
sVhonesty
p1815
I2827
sVP3
p1816
I93
sV[linked] urinary system cancer
p1817
I1370
sVP1
p1818
I91
sV[linked] Joint ankylosis of the forearm
p1819
I305
sV[linked] skin inflammation NOS
p1820
I1303
sVliver failure
p1821
I3141
sVslow virus
p1822
I4063
sV[linked] disorder of optic nerve
p1823
I766
sVswimmer s ear
p1824
I4205
sVimpetigo
p1825
I2904
sVdysentery
p1826
I2307
sV[linked] nutrition, metabolism, and development symptom
p1827
I1146
sVcamping
p1828
I1853
sVfarmers
p1829
I2480
sVwest nile fever
p1830
I4517
sV[linked] hematologic cancer
p1831
I870
sVred eyes
p1832
I3807
sVspasm
p1833
I4091
sVchimpanzees
p1834
I1938
sVblue ear pig disease
p1835
I1730
sV[linked] Lymphatic disorder
p1836
I348
sVherbal
p1837
I2793
sVneurological damage
p1838
I3441
sVcardiovascular
p1839
I1878
sVsinus infection
p1840
I4035
sVcontact with feces
p1841
I2059
sVrabies virus
p1842
I3775
sVlaryngotracheitis
p1843
I3081
sVdemilitarized zone
p1844
I2204
sVregurgitation
p1845
I3814
sVmethicillin resistant staphylococcus aureus
p1846
I3274
sVstomach flu
p1847
I4141
sV[linked] parasitic ectoparasitic infectious disease
p1848
I1173
sVtrembling
p1849
I4337
sV[linked] biliary tract cancer
p1850
I609
sV[linked] plantal
p1851
I1197
sVrinderpest virus
p1852
I3875
sV[linked] chronic persistant hepatitis
p1853
I676
sVchlamydiosis
p1854
I1946
sVisthmus
p1855
I3010
sVebola virus disease
p1856
I2337
sVcolony collapse
p1857
I2021
sVmuscle spasm
p1858
I3361
sVcarbapenem resistant enterobacteriaceae
p1859
I1872
sVmono
p1860
I3306
sVregion
p1861
I3813
sVequine arteritis virus
p1862
I2417
sVcutaneous diphtheria
p1863
I2163
sVpopulation movements
p1864
I3678
sVofficer
p1865
I3485
sVmucocutaneous leishmaniasis
p1866
I3333
sVprairie dogs
p1867
I3693
sVpink eye
p1868
I3624
sVdelirium
p1869
I2201
sVtorrential
p1870
I4305
sVtraded
p1871
I4325
sVrhinopharyngitis
p1872
I3856
sVsimian immunodeficiency virus
p1873
I4032
sV[linked] tuberculosis
p1874
I1356
sVcholestasis
p1875
I1954
sV[linked] Pyelonephritis unspecified
p1876
I434
sVavian influenza virus h5n1
p1877
I1621
sVsepik
p1878
I3972
sVungulates
p1879
I4395
sV[linked] edentate
p1880
I790
sVvarious parts of the body
p1881
I4432
sVmurray valley encephalitis
p1882
I3352
sVleishmaniasis
p1883
I3103
sVcoma
p1884
I2025
sVlegionnaires disease
p1885
I3099
sVcolon
p1886
I2019
sVcontact with urine
p1887
I2071
sVPED
p1888
I95
sVrespiratory signs
p1889
I3838
sV[linked] Non-neoplastic urinary tract disease
p1890
I387
sVpregnancy toxemia
p1891
I3698
sVbreast feeding
p1892
I1781
sVcramps
p1893
I2119
sValzheimer s disease
p1894
I1514
sVmara
p1895
I3223
sVmutism
p1896
I3373
sVcancer of skin
p1897
I1858
sVla crosse encephalitis
p1898
I3055
sVblood disorder
p1899
I1714
sVintellectual disability
p1900
I2983
sV[linked] Exercise-induced asthma
p1901
I239
sV[linked] marsupial
p1902
I1055
sV[linked] gnat
p1903
I857
sVrubella virus
p1904
I3902
sV[linked] hymenopterous insect
p1905
I904
sVrickettsia typhi
p1906
I3865
sVflood plain
p1907
I2538
sVpiroplasmosis
p1908
I3628
sVexanthema
p1909
I2445
sVhorse influenza
p1910
I2834
sV[linked] acute lymphadenitis
p1911
I511
sVclostridium difficile
p1912
I1994
sVskunks
p1913
I4054
sV[linked] acute pneumonia
p1914
I514
sVavian
p1915
I1611
sVeducated
p1916
I2346
sVmeninges
p1917
I3258
sVnipah virus encephalitis
p1918
I3457
sVmeasles
p1919
I3242
sVcoughing
p1920
I2104
sVcoccidiosis
p1921
I2010
sVquarantined
p1922
I3763
sVhemoconcentration
p1923
I2753
sV[linked] primary bacterial infectious disease
p1924
I1214
sVskin itching
p1925
I4045
sV[linked] loose bowel
p1926
I985
sVfoggy
p1927
I2559
sVundercooked
p1928
I4380
sVc difficile
p1929
I1841
sVkidney disease
p1930
I3041
sVsquirrels
p1931
I4113
sVhare
p1932
I2715
sV[linked] eye disease
p1933
I813
sV[linked] non-neoplastic pleural disease
p1934
I1140
sVsevere acute respiratory syndrome virus
p1935
I3983
sV[linked] Agranulocytosis
p1936
I130
sV[linked] Viral meningitis, unspecified
p1937
I491
sVmount
p1938
I3320
sVyearling
p1939
I4554
sVenteritis
p1940
I2386
sV[linked] skeletal system cancer
p1941
I1298
sVsplenomegaly
p1942
I4099
sV[linked] food hypersensitivity
p1943
I837
sV[linked] diplococcus
p1944
I736
sV[linked] gastric disease
p1945
I844
sVhunts
p1946
I2864
sVcetacean
p1947
I1907
sVsimian foamy virus
p1948
I4031
sVhypoglycemia
p1949
I2885
sVclostridium botulinum a
p1950
I1992
sV[linked] agranulocytosis
p1951
I522
sValcoholic
p1952
I1491
sVemergency coordinator
p1953
I2363
sVeye pain
p1954
I2462
sVblood disease
p1955
I1713
sVAIP
p1956
I4
sVDIC
p1957
I34
sV[linked] grubby
p1958
I863
sVVHD
p1959
I119
sVbeaver
p1960
I1656
sVnation
p1961
I3408
sV[linked] carbohydrate metabolism disease
p1962
I646
sVferny
p1963
I2501
sV[linked] Louse-borne rickettsiosis
p1964
I339
sVtourist
p1965
I4309
sVemts
p1966
I2367
sV[linked] Infection due to Aspergillus
p1967
I288
sVdoctor
p1968
I2268
sV[linked] cold weather
p1969
I688
sVmedic
p1970
I3246
sVinfectious agent
p1971
I2928
sVaphid
p1972
I1555
sVbotulism
p1973
I1756
sVcapybara
p1974
I1871
sVagitated
p1975
I1477
sVstreptococcal toxic shock syndrome
p1976
I4157
sVhealth department officials
p1977
I2729
sV[linked] Rash
p1978
I438
sV[linked] kidney disease
p1979
I957
sVrunny nose
p1980
I3907
sV[linked] reproductive system disease
p1981
I1261
sVdrowsiness
p1982
I2293
sV[linked] stuffy nose
p1983
I1324
sVmachupo virus
p1984
I3200
sVa h5n1 flu
p1985
I1414
sV[linked] nerve sheath neoplasm
p1986
I1124
sVfoal
p1987
I2553
sVUTI
p1988
I117
sV[linked] lung disease
p1989
I990
sVfogged
p1990
I2557
sVpredator
p1991
I3697
sVplant virus
p1992
I3636
sVchronic respiratory disease
p1993
I1967
sVpuke
p1994
I3738
sV[linked] Dermatitis
p1995
I209
sVbronchiolitis
p1996
I1798
sVculled
p1997
I2157
sVhot weather
p1998
I2838
sVseizures
p1999
I3968
sVgum bleed
p2000
I2677
sV[linked] lympoid system disease
p2001
I1002
sVbovine tb
p2002
I1765
sV[linked] eye refraction disorder
p2003
I816
sVflu like illness
p2004
I2544
sVgastrointestinal anthrax
p2005
I2606
sV[linked] Lymphadenitis NOS
p2006
I345
sVbreezy
p2007
I1794
sVdecreased egg production
p2008
I2188
sVepizootic hemorrhagic disease virus
p2009
I2412
sVviral conjunctivitis
p2010
I4461
sVbreeze
p2011
I1793
sV[linked] lice infestation
p2012
I974
sV[linked] typhus
p2013
I1364
sV[linked] DISEASE OF THE BLOOD AND BLOOD-FORMING ORGANS
p2014
I207
sV[linked] parasitic helminthiasis infectious disease
p2015
I1174
sVresearchers
p2016
I3825
sV[linked] bone cancer
p2017
I618
sVdrug resistant tuberculosis
p2018
I2298
sV[linked] nerve sheath tumor NOS
p2019
I1126
sVsprayed
p2020
I4106
sVerythema infectiosum
p2021
I2429
sVlivestock
p2022
I3144
sV[linked] Ankylosis of joint of upper arm
p2023
I139
sVedema
p2024
I2344
sV[linked] disease of hematopoietic system
p2025
I742
sVgrippe
p2026
I2657
sVfoodborne botulism
p2027
I2564
sV[linked] acute cholecystitis unspecified
p2028
I509
sV[linked] Articular cartilage disorder of upper arm
p2029
I166
sVdehydration
p2030
I2200
sVfalciparum malaria
p2031
I2474
sVacquired immune deficiency syndrome
p2032
I1433
sVtouch
p2033
I4306
sV[linked] dilated pupil
p2034
I735
sV[linked] arthropod
p2035
I568
sV[linked] Raised intracranial pressure
p2036
I437
sVblow
p2037
I1727
sVhyperesthesia
p2038
I2878
sV[linked] larval
p2039
I963
sVbladder cancer
p2040
I1694
sVasthma
p2041
I1593
sVcancer
p2042
I1857
sVhoarseness
p2043
I2824
sVnon infectious disease
p2044
I3460
sV[linked] renal tubular transport disease
p2045
I1258
sVnestling
p2046
I3435
sVweedy
p2047
I4511
sV[linked] peripheral T-cell lymphoma
p2048
I1181
sV[linked] Ankylosis of multiple joints
p2049
I140
sV[linked] ankylosis of joint of multiple sites
p2050
I543
sVtrench
p2051
I4340
sVsore throat
p2052
I4084
sVinfluenza a virus h1n1
p2053
I2950
sV[linked] testicular disease
p2054
I1341
sV[linked] ectoparasitism
p2055
I789
sVguanarito virus
p2056
I2669
sVhistoplasma capsulatum
p2057
I2816
sVsea
p2058
I3958
sVparamyxovirus
p2059
I3550
sV[linked] Ankylosis of joint of shoulder region
p2060
I138
sVface to face contact
p2061
I2466
sVvaccination
p2062
I4419
sVfire ant
p2063
I2519
sVcrustaceans
p2064
I2146
sVsalmonella typhi
p2065
I3921
sV[linked] hepatic cancer
p2066
I884
sV[linked] sensory system cancer
p2067
I1294
sV[linked] Rat flea typhus
p2068
I439
sVimmune system
p2069
I2898
sVenlarged lymph nodes
p2070
I2380
sVparesthesia
p2071
I3559
sVgastrointestinal tract
p2072
I2610
sV[linked] myeloid granulocytic leukemia
p2073
I1094
sV[linked] Spondarthropathy
p2074
I451
sVclam
p2075
I1977
sVfibromyalgia
p2076
I2509
sVfoot mouth disease
p2077
I2570
sV[linked] mouth symptom
p2078
I1083
sVpregnant
p2079
I3699
sVrespiratory syncytial virus infection
p2080
I3840
sV[linked] LEUKEMIA MYELOGENOUS
p2081
I314
sVtsunami
p2082
I4352
sVperennial
p2083
I3581
sV[linked] CA - bone cancer
p2084
I180
sVnosocomial
p2085
I3469
sVslurred speech
p2086
I4068
sV[linked] liver cancer
p2087
I977
sVpediculosis
p2088
I3575
sVeggplant
p2089
I2351
sVafflict
p2090
I1466
sVunderweight
p2091
I4383
sVgasping for air
p2092
I2601
sVtick infestation
p2093
I4289
sVperspiration
p2094
I3592
sV[linked] neural neoplasm
p2095
I1133
sVcachexia
p2096
I1842
sVextensively drug resistant tuberculosis
p2097
I2454
sVpasture
p2098
I3571
sVhemorrhage
p2099
I2761
sVzoster
p2100
I4568
sVrinderpest
p2101
I3874
sVAD
p2102
I0
sVaujeszky s disease
p2103
I1605
sVwatercourse
p2104
I4499
sVslaughtering
p2105
I4057
sVyaks
p2106
I4551
sV[linked] Unspecified disorder of liver
p2107
I475
sVrespiratory system disease
p2108
I3841
sV[linked] neck symptom
p2109
I1112
sVmuscle soreness
p2110
I3360
sVtaenia solium
p2111
I4236
sVbabysitter
p2112
I1627
sVmeningitis bacterial
p2113
I3260
sVcrimean hemorrhagic fever
p2114
I2136
sV[linked] European typhus
p2115
I235
sVhigh fever
p2116
I2807
sV[linked] tumor of Autonomic nervous system
p2117
I1359
sVmers cov
p2118
I3269
sV[linked] asthma
p2119
I574
sVfever blister
p2120
I2508
sV[linked] carcinoma
p2121
I647
sVboisterous
p2122
I1742
sVpneumococcal
p2123
I3650
sVslaughter
p2124
I4055
sV[linked] Myeloproliferative disease NOS
p2125
I375
sVinhale
p2126
I2968
sVepidemic typhus
p2127
I2401
sVvolcano
p2128
I4483
sV[linked] exanthem
p2129
I806
sVbacterial infectious disease
p2130
I1638
sVuremia
p2131
I4406
sVarmyworm
p2132
I1575
sV[linked] Influenza with other manifestations
p2133
I298
sV[linked] Prion protein disease
p2134
I422
sVparalysis
p2135
I3546
sV[linked] hypersensitivity reaction disease
p2136
I909
sVpandemic potential
p2137
I3540
sVhepatomegaly
p2138
I2790
sVsteers
p2139
I4131
sVcyanosis
p2140
I2166
sVbone
p2141
I1744
sVcongenital syphilis
p2142
I2042
sV[linked] Bronchospasm
p2143
I179
sV[linked] obstructive lung disease
p2144
I1148
sVhunters
p2145
I2862
sV[linked] Pneumoconioses
p2146
I410
sV[linked] Unspecified pyelonephritis NOS
p2147
I480
sVhiv infection
p2148
I2819
sVintestinal disease
p2149
I2993
sVhypothermia
p2150
I2890
sVburning
p2151
I1829
sV[linked] syphilis
p2152
I1332
sV[linked] ischemic heart disease
p2153
I953
sVretro orbital pain
p2154
I3846
sV[linked] hydatid disease
p2155
I900
sV[linked] wave
p2156
I1393
sVswollen lymph nodes
p2157
I4222
sV[linked] gnaw
p2158
I858
sV[linked] liver disorder in pregnancy - delivered
p2159
I982
sV[linked] runny nose
p2160
I1285
sVcontact with the body fluids
p2161
I2067
sV[linked] hepatitis
p2162
I888
sVsoybean rust
p2163
I4090
sVhomeless
p2164
I2826
sVreservation
p2165
I3826
sVt cruzi
p2166
I4233
sVshortening
p2167
I4016
sVskin redness
p2168
I4050
sVequine infectious anaemia
p2169
I2419
sV[linked] air plant
p2170
I524
sVb anthracis
p2171
I1623
sV[linked] Arteriosclerotic Cardiovascular disease
p2172
I143
sV[linked] immune system disease
p2173
I918
sV[linked] disease of mental health
p2174
I746
sV[linked] larva
p2175
I962
sV[linked] Meningitis - viral NOS
p2176
I357
sV[linked] airy
p2177
I525
sVmyeloid leukaemia
p2178
I3382
sVavian flu
p2179
I1614
sVstreptococcus pyogenes
p2180
I4161
sVND
p2181
I89
sV[linked] poisonous plant
p2182
I1206
sV[linked] pneumonia
p2183
I1204
sVhepatitis a virus
p2184
I2777
sVacute respiratory failure
p2185
I1457
sVstaggering gait
p2186
I4117
sVcontact tracing
p2187
I2055
sVmycoplasma
p2188
I3378
sVRRV
p2189
I105
sVhen
p2190
I2770
sVenteric bacteria
p2191
I2384
sVbreast cancer
p2192
I1780
sVfish
p2193
I2520
sV[linked] mycosis
p2194
I1093
sVallergic
p2195
I1498
sVemesis
p2196
I2364
sVimmunocompromised
p2197
I2899
sVmiserable
p2198
I3296
sV[linked] systemic candidiasis
p2199
I1334
sV[linked] impetigo
p2200
I920
sVnightshade
p2201
I3454
sVinfectious bronchitis
p2202
I2930
sVbuggy
p2203
I1816
sVstaphylococcus
p2204
I4126
sVlane
p2205
I3072
sVprawn
p2206
I3694
sVrancher
p2207
I3786
sVblood vessels
p2208
I1720
sVdefoliate
p2209
I2197
sV[linked] Unspecified myeloid leukemia in remission
p2210
I478
sVnasal cavity
p2211
I3403
sVscrub typhus
p2212
I3957
sV[linked] Dermatitis, NOS
p2213
I215
sV[linked] acute and subacute liver necrosis NOS
p2214
I505
sV[linked] carcinoma of kidney
p2215
I648
sV[linked] Megacolon
p2216
I352
sVlack of reporting
p2217
I3065
sVshigella sonnei
p2218
I4007
sVpotato
p2219
I3686
sV[linked] nasal cavity disease NOS
p2220
I1107
sV[linked] disorder of lens
p2221
I757
sVnasal discharge
p2222
I3405
sV[linked] trypanosomiasis
p2223
I1355
sV[linked] Hospital fever
p2224
I274
sVexhaustion
p2225
I2449
sVstreptococcus pneumoniae
p2226
I4160
sVstrange illness
p2227
I4148
sVshrubby
p2228
I4022
sVunidentified illness
p2229
I4397
sVmovement control
p2230
I3329
sVtsutsugamushi fever
p2231
I4355
sV[linked] bone inflammation disease
p2232
I620
sVexpect
p2233
I2451
sV[linked] Angiitis
p2234
I132
sV[linked] congestion
p2235
I698
sVpalate
p2236
I3533
sVpalmoplantar keratoderma
p2237
I3536
sVmycobacterium
p2238
I3376
sVexhausted
p2239
I2448
sVguinea worm
p2240
I2674
sVmoved
p2241
I3328
sVenterococcus
p2242
I2389
sVorchitis
p2243
I3500
sV[linked] Coccidiosis (& [intestinal])
p2244
I194
sV[linked] rodent
p2245
I1283
sV[linked] Lupus erythematosus
p2246
I342
sVemaciation
p2247
I2360
sVvomiting blood
p2248
I4488
sV[linked] neoplasm of eye
p2249
I1116
sVtinnitus
p2250
I4295
sVaggressive behavior
p2251
I1475
sV[linked] Famine fever
p2252
I240
sVmeningitis
p2253
I3259
sVangelica
p2254
I1529
sVvibrio parahaemolyticus
p2255
I4454
sVsystemic infection
p2256
I4231
sVdrivers
p2257
I2288
sV[linked] Weak heart
p2258
I493
sVnarrowing
p2259
I3402
sV[linked] lens disorder
p2260
I967
sVtrichinellosis
p2261
I4342
sV[linked] female reproductive organ cancer
p2262
I827
sVpesticide
p2263
I3597
sVmultiple sclerosis
p2264
I3346
sVweak
p2265
I4503
sVhepatitis b infection
p2266
I2779
sVpoor
p2267
I3674
sVfecal oral
p2268
I2490
sV[linked] autoimmune disease of skin and connective tissue
p2269
I581
sVfrequent urination
p2270
I2582
sVsyphillis
p2271
I4230
sVgonorrhea
p2272
I2640
sV[linked] bone marrow cancer
p2273
I622
sV[linked] Ca extrahepatic bile ducts
p2274
I185
sVrickettsia japonica
p2275
I3863
sV[linked] queen
p2276
I1240
sV[linked] viral infectious disease
p2277
I1385
sVrabid animal
p2278
I3773
sVcove
p2279
I2107
sVsquash
p2280
I4111
sVseriousness
p2281
I3979
sVuterus
p2282
I4416
sVmediastinitis
p2283
I3245
sVmidges
p2284
I3283
sVpeak
p2285
I3574
sVwheezing
p2286
I4525
sVculex
p2287
I2153
sVbartonella
p2288
I1648
sVpleuropneumonia
p2289
I3648
sV[linked] gram-negative pneumonia
p2290
I860
sV[linked] lousy
p2291
I987
sVmultiorgan failure
p2292
I3342
sVnursing staff
p2293
I3475
sVapathy
p2294
I1552
sVundiagnosed illness
p2295
I4388
sVsevere muscle pain
p2296
I3990
sVingestion
p2297
I2962
sVmass
p2298
I3236
sV[linked] acute respiratory failure
p2299
I516
sVsanta ana
p2300
I3930
sVnantucket fever
p2301
I3400
sVphlegm
p2302
I3608
sV[linked] muscle symptom
p2303
I1085
sV[linked] pachydermal
p2304
I1163
sVcoots
p2305
I2088
sVcholecystitis
p2306
I1951
sVinfluenza
p2307
I2946
sVSIV
p2308
I109
sVkeratosis
p2309
I3037
sVallergy
p2310
I1504
sVwound botulism
p2311
I4545
sV[linked] arthritis
p2312
I565
sVweight loss
p2313
I4514
sVDENV
p2314
I32
sVdead monkeys
p2315
I2178
sV[linked] Ankylosis of joint of hand
p2316
I135
sVthyroiditis
p2317
I4281
sV[linked] neural tumor
p2318
I1134
sVsuspected
p2319
I4189
sVworm
p2320
I4542
sV[linked] Keratitis
p2321
I312
sVchildren
p2322
I1933
sVpyrethrum
p2323
I3757
sVsevere joint pain
p2324
I3989
sVzygomycosis
p2325
I4570
sVrickettsia
p2326
I3861
sV[linked] pyelonephritis
p2327
I1237
sVpeste des petits ruminants virus
p2328
I3596
sVhyrax
p2329
I2892
sVamaranth
p2330
I1515
sVmacular degeneration
p2331
I3202
sV[linked] retrovirus
p2332
I1281
sVguillain barre
p2333
I2670
sVhyperthermia
p2334
I2883
sVenteritis necroticans
p2335
I2387
sVdry cough
p2336
I2299
sVpulmonary embolism
p2337
I3741
sVinsecticides
p2338
I2973
sVpleuritic chest pain
p2339
I3647
sV[linked] chronic adenitis
p2340
I666
sV[linked] heteropterous insect
p2341
I895
sVmucosal bleeding
p2342
I3336
sVbovine ephemeral fever virus
p2343
I1762
sVfood borne
p2344
I2562
sVbehind the eye pain
p2345
I1661
sVairborne spores
p2346
I1484
sVhair loss
p2347
I2701
sVextreme fatigue
p2348
I2457
sVrespiratory syncytial virus
p2349
I3839
sVclassical dengue fever
p2350
I1981
sVhypotension
p2351
I2888
sV[linked] pain
p2352
I1167
sVfall
p2353
I2475
sVsalmonella
p2354
I3916
sV[linked] dementia
p2355
I720
sV[linked] Myeloid leukemia
p2356
I366
sV[linked] Articular cartilage disorder of the shoulder region
p2357
I164
sVneurological
p2358
I3440
sV[linked] lupus erythematosus
p2359
I992
sVAHF
p2360
I1
sV[linked] pulmonary echinococcosis
p2361
I1234
sVcougars
p2362
I2101
sVborrelia
p2363
I1752
sVseedling
p2364
I3965
sVcervical lymphadenopathy
p2365
I1905
sV[linked] myositis
p2366
I1102
sVhendra virus
p2367
I2771
sVlarge
p2368
I3077
sV[linked] Liver echinococcus unspecified
p2369
I335
sV[linked] alteration of appetite
p2370
I530
sVskin lesions
p2371
I4047
sVmammal
p2372
I3219
sVinfluenza a h1n1 virus
p2373
I2947
sVconjunctiva of the eye
p2374
I2046
sVhuman enterovirus 71
p2375
I2845
sVenterovirus
p2376
I2390
sVbrucellosis
p2377
I1803
sVEM
p2378
I44
sVrats
p2379
I3797
sVparatyphoid fever
p2380
I3556
sVprominence
p2381
I3717
sV[linked] female reproductive cancer
p2382
I826
sVTSE
p2383
I116
sVtraveler
p2384
I4333
sVcryptococcus neoformans
p2385
I2149
sVbreakers
p2386
I1778
sV[linked] disorder of refraction
p2387
I769
sVpeste des petits ruminants
p2388
I3595
sVvillage
p2389
I4457
sVhunting dog
p2390
I2863
sVamoebiasis
p2391
I1520
sVpneumothorax
p2392
I3656
sVpoliomyelitis
p2393
I3661
sVtb infection
p2394
I4241
sV[linked] brain disease
p2395
I631
sV[linked] metatherian
p2396
I1065
sVexanthema subitum
p2397
I2446
sVbovine spongiform encephalopathy
p2398
I1764
sVticks
p2399
I4292
sVhematologic
p2400
I2747
sV[linked] cartilage disease
p2401
I652
sVconjunctivitis
p2402
I2049
sVblack quarter
p2403
I1688
sVcentral nervous system
p2404
I1897
sV[linked] Hematologic malignancy
p2405
I261
sV[linked] acute adenitis
p2406
I501
sVnurse
p2407
I3472
sV[linked] Adenitis
p2408
I128
sV[linked] Cardiomyopathies
p2409
I188
sVrift valley fever virus
p2410
I3870
sVHCV
p2411
I59
sVmalaria
p2412
I3211
sV[linked] postpartum coagulation defect
p2413
I1209
sVurethritis
p2414
I4407
sV[linked] gastrointestinal system cancer
p2415
I848
sVmule
p2416
I3339
sVranger
p2417
I3788
sV[linked] malignant neoplasm of male genital organs
p2418
I1040
sVintestinal flora
p2419
I2994
sVjoint pain
p2420
I3029
sVtrunk
p2421
I4346
sV[linked] Cardiovascular arteriosclerosis unspecified
p2422
I189
sVicteric
p2423
I2894
sV[linked] ovary disorder
p2424
I1160
sVstupor
p2425
I4169
sV[linked] refractive error
p2426
I1248
sVheifer
p2427
I2744
sV[linked] nervous system symptom
p2428
I1132
sVsensitivity to light
p2429
I3969
sVsandfly fever
p2430
I3926
sVcritter
p2431
I2137
sVlassitude
p2432
I3086
sVsoldier
p2433
I4080
sVa h5n1
p2434
I1413
sVhamster
p2435
I2702
sVmental retardation
p2436
I3267
sVthrombotic thrombocytopenic purpura
p2437
I4277
sVvets
p2438
I4451
sVtoxicity
p2439
I4317
sV[linked] Myeloid leukemias
p2440
I373
sVlymphadenitis
p2441
I3186
sVascariasis
p2442
I1583
sVtrainer
p2443
I4327
sVtesticular cancer
p2444
I4259
sVturkey
p2445
I4359
sV[linked] malignant neoplasm
p2446
I1023
sVgreat pestilence
p2447
I2653
sVh5n1 infection
p2448
I2691
sVhemolysis
p2449
I2757
sVpsittacosis
p2450
I3732
sVagricultural land
p2451
I1479
sV[linked] cell process disease
p2452
I655
sV[linked] hydrophytic
p2453
I903
sViv drug
p2454
I3016
sVeye
p2455
I2459
sVshepard
p2456
I4004
sVgnat
p2457
I2629
sVfaint
p2458
I2472
sVbloody stool
p2459
I1723
sVpoodle
p2460
I3672
sV[linked] neoplasm of connective tissues
p2461
I1115
sVbulla
p2462
I1818
sVtaylorella equigenitalis
p2463
I4238
sV[linked] disorder of lymph node and lymphatics
p2464
I759
sVschistosomiasis
p2465
I3947
sV[linked] Spondylarthrosis NOS
p2466
I452
sV[linked] herb
p2467
I890
sVthistle
p2468
I4268
sV[linked] respiratory failure
p2469
I1266
sVhorses
p2470
I2835
sV[linked] incontinence of feces
p2471
I926
sVclostridium difficile infection
p2472
I1995
sVandes virus
p2473
I1526
sVhib
p2474
I2803
sVnon zoonotic
p2475
I3465
sV[linked] Pneumoconiosis, unspecified
p2476
I413
sV[linked] Dermatitis due to unspecified substance taken internally
p2477
I214
sVherpes zoster virus
p2478
I2802
sVflax
p2479
I2531
sVchimpanzee
p2480
I1937
sVcolon cancer
p2481
I2020
sV[linked] spleen symptom
p2482
I1314
sValveolar echinococcosis
p2483
I1512
sVcellulitis
p2484
I1895
sVVEE
p2485
I118
sVarenaviridae
p2486
I1570
sVsudden onset of fever
p2487
I4179
sVcoyote
p2488
I2111
sVFMD
p2489
I49
sV[linked] malignant neoplasm of liver, primary
p2490
I1035
sVargentine hemorrhagic fever
p2491
I1572
sVpublic health officials
p2492
I3737
sVdirect contact with infected pigs
p2493
I2243
sVtown
p2494
I4311
sVlaborer
p2495
I3057
sV[linked] connective tissue cancer
p2496
I702
sV[linked] arteriosclerosis
p2497
I561
sVhemorrhagic gastroenteritis
p2498
I2766
sV[linked] meningitis
p2499
I1061
sVpermethrin
p2500
I3590
sVH9N2
p2501
I57
sV[linked] bronchial disorder
p2502
I637
sV[linked] primate
p2503
I1222
sV[linked] bacterial infectious disease
p2504
I592
sVmale
p2505
I3212
sVupper respiratory tract
p2506
I4404
sV[linked] bacterial gastroenteritis
p2507
I591
sV[linked] vascular tissue disease
p2508
I1379
sV[linked] plantlet
p2509
I1198
sVdivision
p2510
I2264
sVkeratoconjunctivitis
p2511
I3036
sVaplastic anemia
p2512
I1557
sVIBD
p2513
I71
sVcontact with an infected animal
p2514
I2056
sV[linked] Aspergillosis, unspecified
p2515
I167
sVrise
p2516
I3877
sVrainstorm
p2517
I3782
sVborrelia burgdorferi
p2518
I1753
sVchickenpox virus
p2519
I1925
sV[linked] renal carcinoma
p2520
I1251
sVopen defecation
p2521
I3491
sVprostration
p2522
I3722
sVhyponatremia
p2523
I2887
sVCAE
p2524
I16
sVthrow up
p2525
I4278
sVinsulin dependent diabetes mellitus
p2526
I2982
sVMRSA
p2527
I87
sVvampire bat
p2528
I4424
sV[linked] retinal cancer
p2529
I1276
sVliver
p2530
I3134
sVdesperation
p2531
I2222
sVq fever
p2532
I3760
sV[linked] storminess
p2533
I1321
sVisland
p2534
I3007
sVtick bites
p2535
I4283
sVivy
p2536
I3017
sVlow immunity
p2537
I3168
sV[linked] functional gastric disease
p2538
I839
sVworry
p2539
I4543
sVweed
p2540
I4510
sVyellow fever mosquito
p2541
I4556
sVflushed face
p2542
I2547
sVingesting
p2543
I2961
sV[linked] Conjunctivitis
p2544
I196
sVgoat
p2545
I2630
sV[linked] confusion
p2546
I694
sVplant
p2547
I3634
sVchicken pox
p2548
I1923
sV[linked] Myeloproliferative disease, NOS
p2549
I376
sVlivestock producers
p2550
I3146
sVmononucleosis
p2551
I3307
sVmucous membranes
p2552
I3338
sVanimal contact
p2553
I1533
sVmetabolic acidosis
p2554
I3272
sVyersinia
p2555
I4559
sV[linked] chronic obstructive asthma
p2556
I673
sVmonkey meat
p2557
I3303
sVblood
p2558
I1711
sVosteomyelitis
p2559
I3506
sVmaltese
p2560
I3218
sVimmune globulin
p2561
I2897
sVwave
p2562
I4502
sVpupal
p2563
I3746
sV[linked] Lupus erythematosus NOS
p2564
I343
sVafrican swine fever virus
p2565
I1470
sV[linked] cranial nerve disease
p2566
I715
sV[linked] aquatic mammal
p2567
I556
sVbloating
p2568
I1708
sVcrowded
p2569
I2142
sVrubeola virus
p2570
I3904
sVskin ulcer
p2571
I4051
sVdocumentation
p2572
I2270
sVstop breathing
p2573
I4145
sVeats
p2574
I2331
sV[linked] Proteinuria NOS
p2575
I426
sV[linked] arenavirus
p2576
I560
sVshore
p2577
I4013
sVchronic smoker
p2578
I1968
sVrickettsialpox
p2579
I3867
sVjunin virus
p2580
I3031
sVo nyong nyong
p2581
I3477
sVcomatose
p2582
I2026
sVbacterial pneumonia
p2583
I1640
sVRSV
p2584
I106
sVimmunosuppressed
p2585
I2901
sVinability to swallow
p2586
I2906
sVturmeric
p2587
I4361
sV[linked] Megacolon NOS
p2588
I353
sVgranulomatous hepatitis
p2589
I2648
sV[linked] proteinuria
p2590
I1226
sVdisease of the liver
p2591
I2250
sVpyelonephritis
p2592
I3756
sV[linked] Shop typhus
p2593
I450
sVwoodland
p2594
I4538
sVmiddle east respiratory syndrome coronavirus
p2595
I3281
sVacalculous cholecystitis
p2596
I1428
sVindigestion
p2597
I2914
sV[linked] liver and biliary tract disease
p2598
I976
sVaedes mosquitoes
p2599
I1464
sV[linked] malignant tumour of kidney
p2600
I1052
sV[linked] hypertensive disease
p2601
I913
sVthermal
p2602
I4266
sVcontagious caprine pleuropneumonia
p2603
I2074
sV[linked] Flea typhus
p2604
I244
sVdiabetes mellitus
p2605
I2226
sVtrichinosis
p2606
I4343
sVgelding
p2607
I2612
sVcirculatory collapse
p2608
I1973
sVanaplasmosis
p2609
I1525
sVinfected animal
p2610
I2920
sVswine origin influenza
p2611
I4217
sVmuskrat
p2612
I3369
sVrabbit hemorrhagic disease virus
p2613
I3771
sVpests
p2614
I3599
sVclostridium perfringens
p2615
I1997
sV[linked] neoplasm of peripheral nerve
p2616
I1121
sVbuttercup
p2617
I1838
sVrickettsia bacteria
p2618
I3862
sV[linked] malignant reproductive system neoplasm
p2619
I1045
sVobstructive lung disease
p2620
I3482
sVciguatera fish poisoning
p2621
I1970
sVbackache
p2622
I1633
sVthoroughbred
p2623
I4270
sVprotozoan
p2624
I3727
sVbundibugyo ebolavirus
p2625
I1821
sVsars coronavirus
p2626
I3933
sVnosocomial infection
p2627
I3470
sV[linked] Diverticular disease of colon
p2628
I221
sV[linked] intestinal cancer
p2629
I945
sVinfarction
p2630
I2919
sVhunter
p2631
I2861
sVenteric fever
p2632
I2385
sVinfluenza pandemic h1n1 2009
p2633
I2957
sV[linked] epithelioma
p2634
I803
sVcoccidioides immitis
p2635
I2008
sVrespiratory
p2636
I3828
sVvomit
p2637
I4486
sValcohol abuse
p2638
I1489
sVblood transfusions
p2639
I1719
sVfoot
p2640
I2566
sV[linked] windy
p2641
I1404
sVhunted
p2642
I2860
sVa h5n1 influenza
p2643
I1415
sVpossums
p2644
I3683
sVrhinorrhea
p2645
I3857
sVnosebleeds
p2646
I3468
sVbacillary dysentery
p2647
I1629
sVelder
p2648
I2354
sVbone marrow
p2649
I1747
sVfungal endophthalmitis
p2650
I2587
sVnauseous
p2651
I3410
sVflying squirrels
p2652
I2552
sV[linked] bacterial pneumonia
p2653
I593
sV[linked] biliary tract disease
p2654
I610
sVmycosis
p2655
I3379
sVretinitis
p2656
I3845
sV[linked] Rhinitis, NOS
p2657
I446
sVallergies
p2658
I1503
sV[linked] leishmaniasis
p2659
I965
sV[linked] respiratory airway obstruction
p2660
I1265
sV[linked] tachycardia
p2661
I1338
sV[linked] Articular cartilage disorder involving shoulder region
p2662
I153
sVincoordination
p2663
I2911
sV[linked] nose disease
p2664
I1143
sV[linked] loose bowels
p2665
I986
sVclams
p2666
I1978
sVsevere headache
p2667
I3987
sVburuli ulcer
p2668
I1831
sV[linked] Viral: [infection NOS] or [illness]
p2669
I492
sV[linked] immune system cancer
p2670
I917
sV[linked] fecal
p2671
I821
sVfoxes
p2672
I2578
sV[linked] good weather
p2673
I859
sVcough variant asthma
p2674
I2103
sVcloudy
p2675
I1999
sV[linked] Pyelonephritis NOS
p2676
I433
sV[linked] digestive system disorder
p2677
I733
sVinspections
p2678
I2979
sVevent
p2679
I2441
sVhealth officials
p2680
I2732
sVdry season
p2681
I2302
sVherpes simplex virus
p2682
I2800
sVvertigo
p2683
I4443
sVhyperbilirubinemia
p2684
I2876
sVallergic reaction
p2685
I1501
sVheart failure
p2686
I2740
sVwarts
p2687
I4494
sVpigeon
p2688
I3619
sV[linked] skin lesion
p2689
I1304
sVspondylitis
p2690
I4100
sVrace
p2691
I3778
sVhill
p2692
I2814
sVcyclone
p2693
I2167
sVunexplained illness
p2694
I4392
sVwasabi
p2695
I4495
sV[linked] tetanus
p2696
I1344
sV[linked] Inner ear disorder
p2697
I300
sV[linked] Exanthematous typhus
p2698
I237
sV[linked] bile duct carcinoma
p2699
I605
sVtoxoplasmosis
p2700
I4320
sVinfection of cattle
p2701
I2927
sVshaft
p2702
I3999
sVdriver
p2703
I2287
sV[linked] Prion disease pathway
p2704
I421
sVpricking
p2705
I3706
sVshort of breath
p2706
I4015
sVcockroach
p2707
I2012
sVakabane virus
p2708
I1488
sVdisinfect
p2709
I2251
sV[linked] encephalitis
p2710
I793
sValgal
p2711
I1497
sVfear of water
p2712
I2487
sV[linked] beetle
p2713
I601
sV[linked] Liver disorder in pregnancy, unspecified as to episode of care
p2714
I333
sVpup
p2715
I3744
sValgae
p2716
I1496
sV[linked] Unspecified filariasis
p2717
I476
sV[linked] myeloproliferative disorder
p2718
I1098
sVblister
p2719
I1704
sV[linked] Gastroenteropathy
p2720
I251
sVleaf miner
p2721
I3089
sVtsunamis
p2722
I4353
sVcremated
p2723
I2125
sVskin rash
p2724
I4049
sVechoviruses
p2725
I2341
sVprotist
p2726
I3726
sVsewage
p2727
I3994
sVlemurs
p2728
I3107
sV[linked] heart disease
p2729
I868
sVungulate
p2730
I4394
sV[linked] degenerative disease
p2731
I719
sVtwisted neck
p2732
I4364
sValphavirus
p2733
I1509
sVextremities weakness
p2734
I2458
sVwest wind
p2735
I4520
sVjapanese encephalitis virus
p2736
I3022
sVmale infertility
p2737
I3213
sVsudden onset of headache
p2738
I4180
sVswelling of the lymph nodes
p2739
I4203
sVfeeder
p2740
I2491
sVsudden high fever
p2741
I4178
sVMTB
p2742
I88
sVenlarged
p2743
I2379
sVgenital herpes
p2744
I2616
sVshakes
p2745
I4000
sVlyssa
p2746
I3196
sVrhinotracheitis
p2747
I3858
sVproteinuria protein in the urine
p2748
I3725
sVbad weather
p2749
I1641
sVallergic rhinitis
p2750
I1502
sVhorse
p2751
I2833
sVbreathless
p2752
I1788
sVsymptom
p2753
I4226
sVtemperature
p2754
I4249
sVjail fever
p2755
I3019
sVperipheral vascular disease
p2756
I3587
sVadenovirus
p2757
I1458
sVairborne
p2758
I1483
sV[linked] Leucopenia
p2759
I322
sVbleeding
p2760
I1696
sV[linked] primary cancer
p2761
I1215
sVkidney cancer
p2762
I3039
sV[linked] ankylosis of hand joint
p2763
I542
sVpontiac fever
p2764
I3671
sVperiwinkle
p2765
I3589
sVdestruction
p2766
I2224
sVbanana
p2767
I1642
sVheadache
p2768
I2722
sVear infection
p2769
I2321
sV[linked] blocked nose
p2770
I612
sVmalignant catarrhal fever
p2771
I3214
sVthirst
p2772
I4267
sVcontaminated meat
p2773
I2078
sV[linked] Mastoiditis and related conditions
p2774
I351
sVtom
p2775
I4299
sV[linked] create
p2776
I716
sV[linked] musculoskeletal system cancer
p2777
I1089
sVopossums
p2778
I3493
sVtrapper
p2779
I4331
sVboutonneuse fever
p2780
I1759
sVparr
p2781
I3562
sVgerstmann straussler scheinker disease
p2782
I2620
sVdoctors
p2783
I2269
sVafebrile
p2784
I1465
sVmaedi visna
p2785
I3206
sVamerican cutaneous leishmaniasis
p2786
I1517
sVactive tb disease
p2787
I1436
sVfarming
p2788
I2481
sVamebiasis
p2789
I1516
sV[linked] endocrine pancreas disease
p2790
I798
sV[linked] Granulocytopenic disorder
p2791
I256
sVneuropathy
p2792
I3445
sVheadwind
p2793
I2725
sV[linked] Polyneuropathy unspecified
p2794
I417
sV[linked] Coronary disease
p2795
I205
sVhyperlipidemia
p2796
I2879
sVscar
p2797
I3943
sVurinary frequency
p2798
I4410
sV[linked] bacterise
p2799
I595
sVlung disease
p2800
I3176
sV[linked] Pyelonephritis, unspecified
p2801
I435
sVinfluenza like symptoms
p2802
I2956
sVrotavirus infection
p2803
I3897
sV[linked] syphilitic chancre
p2804
I1333
sVaquaculture site
p2805
I1561
sVweakened immune system
p2806
I4506
sV[linked] myeloid leukemia
p2807
I1095
sVeye redness
p2808
I2463
sV[linked] musculoskeletal system symptom
p2809
I1091
sVrenal dysfunction
p2810
I3818
sV[linked] mammalian
p2811
I1054
sVavian influenza virus
p2812
I1620
sV[linked] cecal disease
p2813
I654
sVcyanobacteria
p2814
I2165
sVgale
p2815
I2594
sVaspergillus fumigatus
p2816
I1589
sVpaleness
p2817
I3534
sVrove beetle
p2818
I3899
sVchipmunks
p2819
I1941
sVshrews
p2820
I4020
sVdisoriented
p2821
I2255
sVsmallpox
p2822
I4070
sValexia
p2823
I1494
sVleishmaniasis cutaneous
p2824
I3104
sVRPV
p2825
I104
sV[linked] Pyelitis unspecified
p2826
I431
sVcave
p2827
I1891
sVbramble
p2828
I1776
sVofficers
p2829
I3486
sV[linked] Polyneuropathy
p2830
I416
sVvaricella
p2831
I4430
sVswallowing
p2832
I4190
sVinternal
p2833
I2986
sVfrail
p2834
I2580
sVcolor blindness
p2835
I2023
sV[linked] metal metabolism disorder
p2836
I1064
sV[linked] Atherosclerotic cardiovascular disease
p2837
I169
sVcanine distemper
p2838
I1860
sV[linked] Thoracic tumor
p2839
I461
sVcapillaries
p2840
I1867
sVswamp fever
p2841
I4193
sVfoaming at the mouth
p2842
I2554
sVcontinued fever
p2843
I2082
sVprevailing wind
p2844
I3704
sVhygrophyte
p2845
I2875
sVacute enteritis
p2846
I1441
sV[linked] Murine [endemic] typhus
p2847
I361
sVfactory worker
p2848
I2470
sVneonates
p2849
I3426
sVviral infectious disease
p2850
I4471
sVcreutzfeldt jakob disease
p2851
I2127
sVrocio
p2852
I3882
sVburied
p2853
I1826
sVtoxemia
p2854
I4312
sVurinary bladder
p2855
I4409
sVperineum
p2856
I3584
sVdog flu
p2857
I2273
sVtick borne
p2858
I4284
sVherpangina
p2859
I2796
sVco infection
p2860
I2002
sVcrimean congo haemorrhagic fever virus
p2861
I2131
sVsturdy
p2862
I4170
sV[linked] opportunistic systemic mycoses
p2863
I1151
sV[linked] mature T-cell and NK-cell neoplasm
p2864
I1059
sV[linked] adenovirus
p2865
I520
sV[linked] disorder of bile duct
p2866
I750
sVsalinity
p2867
I3913
sVdirty needle
p2868
I2244
sVamphibian
p2869
I1522
sV[linked] adenopathy
p2870
I519
sV[linked] mastocytosis
p2871
I1058
sVdonkeys
p2872
I2280
sVlack of interest
p2873
I3064
sVfifth plague
p2874
I2512
sV[linked] bone inflammatory disease
p2875
I621
sV[linked] osteitis
p2876
I1158
sV[linked] Nephritis NOS
p2877
I381
sV[linked] congestive heart failure
p2878
I699
sVhumid
p2879
I2857
sV[linked] cognitive disease
p2880
I686
sVshearer
p2881
I4001
sVsummer
p2882
I4182
sVlack of appetite
p2883
I3059
sVswelling
p2884
I4201
sVfungal infectious disease
p2885
I2589
sV[linked] lymphatic system disease
p2886
I997
sV[linked] disorder of glucose metabolism
p2887
I755
sVtrachoma
p2888
I4323
sVbreathing problems
p2889
I1787
sVleukocytopenia
p2890
I3122
sVgenitalia
p2891
I2617
sVtag
p2892
I4237
sVJE
p2893
I74
sVsweaty
p2894
I4199
sVhepatic encephalopathy
p2895
I2774
sVoliguria
p2896
I3487
sVvibrio vulnificus
p2897
I4455
sV[linked] neoplasm of eye proper
p2898
I1117
sVmovement of animals
p2899
I3330
sVamoebic dysentery
p2900
I1521
sV[linked] disorder of lymphatic system
p2901
I760
sV[linked] Hemorrhagic fever, Russian
p2902
I270
sVelevated liver enzymes
p2903
I2359
sVviral infection
p2904
I4470
sVerythema migrans
p2905
I2430
sVpiedra
p2906
I3616
sV[linked] Influenza with non-respiratory manifestation
p2907
I297
sV[linked] Articular cartilage disorder of the hand
p2908
I162
sValcohol dependence
p2909
I1490
sVshingles
p2910
I4009
sVstillbirth
p2911
I4136
sV[linked] HTN
p2912
I260
sVnewcastle disease virus
p2913
I3451
sV[linked] mammal
p2914
I1053
sVindifference
p2915
I2913
sVhip
p2916
I2815
sVaspergillosis
p2917
I1588
sV[linked] low blood pressure
p2918
I988
sVdust
p2919
I2306
sVcholera
p2920
I1952
sVlouse borne typhus
p2921
I3160
sVgroup a streptococcal infection
p2922
I2662
sVferret
p2923
I2502
sVsmall intestine
p2924
I4069
sVrapids
p2925
I3792
sV[linked] Tuberculosis, antepartum
p2926
I466
sVcommunity acquired mrsa
p2927
I2031
sV[linked] mycoses
p2928
I1092
sV[linked] Typhus exanthematique
p2929
I470
sV[linked] abnormal loss of weight and underweight
p2930
I496
sVcampylobacter
p2931
I1855
sVviral haemorrhagic disease
p2932
I4464
sValexander
p2933
I1493
sVptosis
p2934
I3734
sVdry hacking cough
p2935
I2300
sVnipah virus
p2936
I3456
sVadulthood
p2937
I1461
sVlegionella infection
p2938
I3093
sVcongestive cardiomyopathy
p2939
I2044
sVacute kidney failure
p2940
I1447
sV[linked] nasal obstruction
p2941
I1110
sVhemorrhagic pneumonia
p2942
I2768
sVtabby
p2943
I4234
sVjoint pains
p2944
I3030
sV[linked] neoplasm of bone
p2945
I1113
sV[linked] urethral disease
p2946
I1368
sVcattle plague
p2947
I1889
sVdiabetes
p2948
I2225
sVtyphoon
p2949
I4367
sVkill
p2950
I3045
sVdizziness
p2951
I2265
sV[linked] hematopoietic tumors
p2952
I875
sV[linked] Non-neoplastic Salivary gland disease
p2953
I385
sVuveitis
p2954
I4417
sVingestion of raw
p2955
I2965
sVendemic typhus
p2956
I2376
sVcramp
p2957
I2117
sV[linked] neoplasm of retina
p2958
I1122
sVinfluenza like illness
p2959
I2955
sVlocale
p2960
I3151
sV[linked] bone neoplasm
p2961
I626
sV[linked] Pleural disorder
p2962
I409
sVvine
p2963
I4458
sVschizophrenia
p2964
I3948
sVpapules
p2965
I3543
sVenterovirus infection
p2966
I2393
sV[linked] plague
p2967
I1194
sVnewcastle disease
p2968
I3450
sVshoreline
p2969
I4014
sV[linked] Leucodystrophy
p2970
I320
sV[linked] bacterioidal
p2971
I594
sVrosemary
p2972
I3892
sVswine fever
p2973
I4210
sV[linked] myeloma
p2974
I1096
sVwhitefly
p2975
I4528
sVtoxic shock syndrome
p2976
I4316
sV[linked] domestic animal
p2977
I778
sVlack of water
p2978
I3066
sV[linked] exhaustion
p2979
I809
sV[linked] Myelogenous Leukemia in Remission
p2980
I363
sVnew infectious disease
p2981
I3449
sVendocarditis
p2982
I2377
sVswollen lymph glands
p2983
I4221
sVhydatid cyst
p2984
I2867
sVburned
p2985
I1828
sVavoidance
p2986
I1622
sV[linked] pink eye
p2987
I1192
sVvole
p2988
I4484
sVgroup a strep disease
p2989
I2661
sVtyphoons
p2990
I4368
sVunconscious
p2991
I4377
sV[linked] Encephalomyelitis
p2992
I229
sVstallion
p2993
I4121
sVintestinal obstruction
p2994
I2996
sVneurodegenerative disease
p2995
I3439
sVbleeding under the skin
p2996
I1702
sV[linked] malignant neoplasm of male genital organ, unspecified
p2997
I1039
sVemphysematous swelling
p2998
I2365
sVflea borne typhus
p2999
I2533
sV[linked] hemoglobinopathy
p3000
I880
sV[linked] Dermatitis NOS
p3001
I210
sVveterinarian
p3002
I4448
sVperipheral blood
p3003
I3585
sV[linked] proboscidean
p3004
I1225
sVtb disease
p3005
I4239
sV[linked] arthropod-borne viruses
p3006
I569
sValoe
p3007
I1507
sV[linked] encephalomyelitis
p3008
I794
sV[linked] human ehrlichiosis
p3009
I899
sVdegenerative disease
p3010
I2198
sV[linked] cholangitis
p3011
I662
sVweil s disease
p3012
I4515
sVmultidrug resistant tuberculosis
p3013
I3341
sVamoeba
p3014
I1519
sV[linked] testis disorder
p3015
I1343
sVchronic diarrhea
p3016
I1960
sVabdominal cramps
p3017
I1417
sV[linked] autonomic nervous system neoplasm
p3018
I582
sVoptic neuritis
p3019
I3494
sVdysphagia
p3020
I2308
sVdistress
p3021
I2262
sVranchers
p3022
I3787
sVactive tuberculosis
p3023
I1437
sV[linked] nasal cavity disorder
p3024
I1108
sVsepsis
p3025
I3973
sVcongestion
p3026
I2043
sVleon
p3027
I3108
sVdark urine
p3028
I2174
sVlow fever
p3029
I3166
sVpneumonic tularemia
p3030
I3654
sVprimary syphilis
p3031
I3708
sVtremor
p3032
I4338
sVguinea worm disease
p3033
I2675
sVesophagus
p3034
I2438
sV[linked] muscle tissue disease
p3035
I1086
sV[linked] ear symptom
p3036
I785
sVgoats
p3037
I2633
sVheadaches
p3038
I2723
sVstaphylococcal food poisoning
p3039
I4125
sVsuckling
p3040
I4176
sVsepticemia
p3041
I3976
sV[linked] rhinitis
p3042
I1282
sV[linked] mineral metabolism disease
p3043
I1073
sVlizards
p3044
I3148
sV[linked] Flea-borne typhus
p3045
I246
sVcreate
p3046
I2122
sVbronchitis
p3047
I1799
sVbug spray
p3048
I1815
sVsick person
p3049
I4028
sVearthquake
p3050
I2322
sVviral disease
p3051
I4462
sV[linked] Leukodystrophy
p3052
I323
sVarcheological site
p3053
I1568
sV[linked] coronary artery disease
p3054
I712
sV[linked] bile duct cancer
p3055
I604
sV[linked] hepatic disorder
p3056
I885
sVterritory
p3057
I4256
sVchlamydophila abortus
p3058
I1947
sV[linked] physiological malfunction arising from mental factor
p3059
I1190
sV[linked] disease of inner ear
p3060
I743
sV[linked] uveal disease
p3061
I1375
sVanthrax
p3062
I1542
sVsquirrel
p3063
I4112
sVstiff neck
p3064
I4133
sVbuck
p3065
I1810
sVfire
p3066
I2518
sV[linked] anxiety state
p3067
I552
sVrheumatic heart disease
p3068
I3853
sVgas
p3069
I2598
sVakabane
p3070
I1487
sVgap
p3071
I2597
sVpupa
p3072
I3745
sV[linked] exanthema
p3073
I807
sVMF
p3074
I86
sV[linked] Articular cartilage disorder involving pelvic region and thigh
p3075
I152
sVtime zone
p3076
I4293
sVinsect repellent
p3077
I2971
sVrabbit fever
p3078
I3769
sVNDV
p3079
I90
sVinclement
p3080
I2909
sVswelling of lymph nodes
p3081
I4202
sVebola virus infection
p3082
I2338
sVbrain disease
p3083
I1772
sVchronic cough
p3084
I1959
sVkidney damage
p3085
I3040
sVbleeding from orifices
p3086
I1697
sVviral encephalitis
p3087
I4463
sV[linked] syndrome, NOS
p3088
I1331
sVpaca
p3089
I3524
sVsea urchin
p3090
I3960
sV[linked] dizzy
p3091
I776
sVgreen monkeys
p3092
I2655
sVmacrophage
p3093
I3201
sV[linked] diarrhea of presumed infectious origin
p3094
I729
sV[linked] middle ear disorder
p3095
I1069
sVeyelids
p3096
I2464
sVagitation
p3097
I1478
sVmoth
p3098
I3318
sVbunyaviridae
p3099
I1822
sV[linked] primary malignant neoplasm of Liver
p3100
I1217
sVducks
p3101
I2304
sVEIA
p3102
I42
sV[linked] eye infection
p3103
I814
sVcommissioner for health
p3104
I2027
sVtransfer of blood
p3105
I4328
sV[linked] Coccidiosis
p3106
I193
sVsimian
p3107
I4030
sVskunk
p3108
I4053
sVbreakbone fever
p3109
I1777
sVRCC
p3110
I100
sVhookworm
p3111
I2830
sVimmunosuppression
p3112
I2902
sVRMSF
p3113
I102
sVbaseline
p3114
I1649
sVfog
p3115
I2556
sVmigraine
p3116
I3284
sVmint
p3117
I3293
sVdrug abuse
p3118
I2295
sVjoint aches
p3119
I3028
sVcontact with the skin
p3120
I2069
sVbutcher
p3121
I1835
sV[linked] retinal disease
p3122
I1279
sV[linked] male reproductive system neoplasm
p3123
I1010
sV[linked] gastroenteritis
p3124
I845
sVprotein in the urine
p3125
I3723
sVdesquamation
p3126
I2223
sVblue ear
p3127
I1729
sVhoneybee
p3128
I2828
sVchickenpox
p3129
I1924
sVfibrosis
p3130
I2510
sVconflict
p3131
I2036
sVafrican trypanosomiasis
p3132
I1472
sVshigella infection
p3133
I4006
sVitch
p3134
I3011
sVflooded
p3135
I2539
sVbuckwheat
p3136
I1811
sV[linked] Murine typhus
p3137
I362
sV[linked] Megacolon, not Hirschsprung's
p3138
I355
sVherpes simplex
p3139
I2799
sVraccoon
p3140
I3776
sVflurry
p3141
I2546
sVtransmissible spongiform encephalopathy
p3142
I4330
sVcensus
p3143
I1896
sVstomach pain
p3144
I4142
sV[linked] physical disorder
p3145
I1189
sV[linked] abscess
p3146
I498
sV[linked] malignant Colorectal tumor
p3147
I1011
sVclimb
p3148
I1987
sV[linked] Liver disorder in pregnancy, with delivery
p3149
I334
sVinterstitial pneumonia
p3150
I2990
sVherpes infection
p3151
I2798
sVinfertility
p3152
I2938
sVshortness of breath
p3153
I4017
sVfungal meningitis
p3154
I2590
sV[linked] weakness
p3155
I1394
sV[linked] Liver disorder NOS
p3156
I328
sVflaccid paralysis
p3157
I2526
sV[linked] malignant neoplasm of male genital organ or tract
p3158
I1036
sV[linked] GI tumor
p3159
I249
sV[linked] Blood dyscrasia NOS
p3160
I174
sVsick animal
p3161
I4024
sVcrayfish
p3162
I2121
sVp aeruginosa
p3163
I3519
sVhypotensive
p3164
I2889
sVcoup
p3165
I2106
sVbile duct
p3166
I1667
sV[linked] Myeloid leukemia, no ICD-O subtype
p3167
I372
sV[linked] malignant neoplasm of intestine
p3168
I1028
sVgerman measles
p3169
I2619
sVcholangiocarcinoma
p3170
I1949
sV[linked] exercise-induced asthma
p3171
I808
sVtechnicians
p3172
I4246
sVsnow
p3173
I4075
sVzaire ebolavirus
p3174
I4563
sVbone lesions
p3175
I1746
sV[linked] communication disorder
p3176
I693
sV[linked] malignant epithelioma
p3177
I1018
sVstunt
p3178
I4168
sVCCD
p3179
I18
sVscabs
p3180
I3940
sVinternal bleeding
p3181
I2987
sV[linked] retina degeneration
p3182
I1274
sVavian chlamydiosis
p3183
I1612
sV[linked] intestinal disease
p3184
I947
sV[linked] Lupus Erythematosus
p3185
I341
sV[linked] pervasive developmental disorder
p3186
I1188
sVgas production
p3187
I2599
sVnon typhoidal salmonella
p3188
I3464
sVfuruncle
p3189
I2592
sVpoliovirus type 1
p3190
I3663
sVworkers
p3191
I4541
sVhealth authorities
p3192
I2726
sVCHIKV
p3193
I23
sVfitting
p3194
I2525
sVwinds
p3195
I4534
sVweakness
p3196
I4507
sVrangers
p3197
I3789
sVmusculoskeletal
p3198
I3368
sVcub
p3199
I2152
sV[linked] neoplasm of bone marrow
p3200
I1114
sVdecontamination
p3201
I2186
sVimpoverished
p3202
I2905
sVpruritis
p3203
I3728
sVlupus erythematosus
p3204
I3181
sV[linked] filovirus
p3205
I831
sVbrain damage
p3206
I1771
sVapnea
p3207
I1558
sV[linked] substance abuse
p3208
I1325
sVpancytopenia
p3209
I3539
sVbleeding from the mouth
p3210
I1698
sVbladder
p3211
I1693
sVbig
p3212
I1666
sVhaemophilus influenzae type b
p3213
I2696
sVmyelitis
p3214
I3381
sVenterovirus 71 ev71
p3215
I2392
sVviral hemorrhagic fever
p3216
I4466
sVross river fever
p3217
I3894
sV[linked] Unspecified keratitis
p3218
I477
sVmuscle atrophy
p3219
I3356
sV[linked] lymphatic disorder
p3220
I996
sVmelioidosis
p3221
I3255
sVpollinate
p3222
I3666
sVinsect
p3223
I2970
sVdormouse
p3224
I2281
sV[linked] malignant tumor of liver
p3225
I1047
sVspine
p3226
I4096
sVchancre
p3227
I1911
sVretrovirus
p3228
I3848
sVa h3n2
p3229
I1412
sVdog tick
p3230
I2274
sV[linked] retina circulation disorder
p3231
I1273
sVbreeder
p3232
I1790
sVproptosis
p3233
I3720
sVhuman african trypanosomiasis
p3234
I2841
sVa h1n2
p3235
I1411
sVa h1n1
p3236
I1409
sVrecurrent fever
p3237
I3805
sVebola haemorrhagic fever
p3238
I2334
sVspring
p3239
I4108
sV[linked] muscle weakness
p3240
I1087
sVlack of immunization
p3241
I3063
sVlisteria
p3242
I3129
sV[linked] lymphoma
p3243
I1001
sVbone tumor
p3244
I1748
sVDEN
p3245
I31
sVclostridium botulinum
p3246
I1991
sVbruising
p3247
I1806
sV[linked] Post-kala-azar dermal leishmaniasis
p3248
I420
sV[linked] hypotrichosis
p3249
I914
sVAML
p3250
I6
sVattended the funeral
p3251
I1602
sVpet
p3252
I3600
sV[linked] cervicalgia
p3253
I660
sVcommunity health workers
p3254
I2033
sVurinary obstruction
p3255
I4412
sVred fox
p3256
I3809
sVequine infectious anemia virus
p3257
I2421
sVacute renal failure
p3258
I1454
sVferry crossing
p3259
I2504
sVscalp
p3260
I3942
sV[linked] psychotic disorder
p3261
I1232
sVconvulsions
p3262
I2086
sVacute respiratory distress
p3263
I1455
sVgallbladder
p3264
I2595
sVtech
p3265
I4244
sVapathetic
p3266
I1551
sVavian influenza h5n1
p3267
I1619
sVtyphus
p3268
I4369
sVrespiratory tract
p3269
I3842
sVeating
p3270
I2330
sV[linked] convulsion
p3271
I707
sVdermatitis
p3272
I2219
sVred blood cells
p3273
I3806
sV[linked] optic neuropathy
p3274
I1154
sVarenavirus
p3275
I1571
sVrue
p3276
I3905
sVpondweed
p3277
I3670
sV[linked] pyelitis
p3278
I1236
sVbird flu
p3279
I1674
sVnerves
p3280
I3432
sV[linked] bronchial hyperreactivity
p3281
I638
sV[linked] hemorrhagic fever with renal syndrome
p3282
I883
sVgibbons
p3283
I2624
sVvaccine
p3284
I4420
sV[linked] Reproductive tumor
p3285
I440
sV[linked] Louse infestation (& [pediculosis and phthirus] or [lice])
p3286
I337
sVwildlife
p3287
I4532
sVrheumatic fever
p3288
I3852
sVnasopharynx
p3289
I3407
sVdog ticks
p3290
I2275
sV[linked] Filariasis
p3291
I241
sVglaucoma
p3292
I2628
sV[linked] cancer
p3293
I643
sVvirus
p3294
I4476
sVcamelid
p3295
I1848
sV[linked] malignant neoplasm of liver unspecified
p3296
I1033
sVfogging
p3297
I2558
sV[linked] ear disorder
p3298
I783
sVcatarrh
p3299
I1885
sV[linked] Taenia saginata infectious disease
p3300
I459
sVmuscle pains
p3301
I3359
sVfoot and mouth disease virus
p3302
I2569
sVheart attack
p3303
I2738
sVblock
p3304
I1709
sVdissolved oxygen
p3305
I2260
sVguillain barre syndrome
p3306
I2671
sVgonorrhoea
p3307
I2641
sVeaten
p3308
I2329
sVpremature delivery
p3309
I3701
sV[linked] leukocyte disease
p3310
I971
sVblastomycosis
p3311
I1695
sVp malariae
p3312
I3521
sVacute diarrhea
p3313
I1439
sV[linked] liver disease
p3314
I979
sVHFM
p3315
I62
sVstaph infection
p3316
I4124
sVinsecticide
p3317
I2972
sV[linked] clement
p3318
I682
sVconvulsion
p3319
I2085
sVacquired immunodeficiency syndrome
p3320
I1434
sV[linked] inborn metal metabolism disorder
p3321
I923
sVburials
p3322
I1825
sVyellow fever
p3323
I4555
sV[linked] weedy
p3324
I1397
sV[linked] disease of the liver
p3325
I749
sVovine progressive pneumonia
p3326
I3516
sVdry mouth
p3327
I2301
sVchronic wasting disease
p3328
I1969
sV[linked] Dermatitis due to Unspecified Substance taken Internally
p3329
I212
sVmucopurulent nasal discharge
p3330
I3334
sVflu like symptoms
p3331
I2545
sVparsnip
p3332
I3564
sVCWD
p3333
I29
sVpneumonitis
p3334
I3655
sVflying foxes
p3335
I2551
sVmyoclonus
p3336
I3386
sVvibrio
p3337
I4452
sV[linked] Endemic Typhus fever
p3338
I231
sV[linked] Myeloid leukemia in remission
p3339
I368
sVspat
p3340
I4094
sVpetechial rash
p3341
I3602
sV[linked] chronic obstructive asthma with acute exacerbation
p3342
I674
sVinfectious diarrhea
p3343
I2932
sVallergy to eggs
p3344
I1505
sVfrost
p3345
I2583
sVbursitis
p3346
I1830
sVHFRS
p3347
I64
sVdiscitis
p3348
I2248
sVpremature birth
p3349
I3700
sVfine spray
p3350
I2516
sVkawasaki disease
p3351
I3034
sVBSE
p3352
I13
sVrenal diabetes
p3353
I3817
sVbandicoot
p3354
I1643
sV[linked] chest pain
p3355
I661
sVdealers
p3356
I2182
sV[linked] acute and subacute necrosis of liver
p3357
I506
sVcramping
p3358
I2118
sVsoft tissue swelling
p3359
I4079
sVuta
p3360
I4415
sV[linked] aquatic plant
p3361
I557
sVMEC
p3362
I84
sVhigh wind
p3363
I2808
sV[linked] gastrointestinal tract cancer
p3364
I850
sV[linked] long-horned beetle
p3365
I984
sV[linked] malignant neoplasm of large intestine NOS
p3366
I1030
sVpolyneuropathy
p3367
I3667
sVtertiary syphilis
p3368
I4257
sVpurulent conjunctivitis
p3369
I3752
sVeaglet
p3370
I2318
sValtered level of consciousness
p3371
I1510
sVchronic obstructive pulmonary disease
p3372
I1966
sVstreptococcal
p3373
I4156
sV[linked] breast disease
p3374
I633
sVinfection in birds
p3375
I2923
sVtick typhus
p3376
I4290
sVdill
p3377
I2239
sVpyrexia
p3378
I3758
sVgeese
p3379
I2611
sVadults
p3380
I1462
sVst louis encephalitis virus
p3381
I4116
sVhantaan virus
p3382
I2708
sVorchard
p3383
I3499
sVtreehole mosquito
p3384
I4335
sVsalivary glands
p3385
I3914
sVstiffness of the neck
p3386
I4134
sVscrapie
p3387
I3952
sVhepatitis c virus
p3388
I2783
sV[linked] Genodermatosis, NOS
p3389
I254
sV[linked] Infestation by Pediculus
p3390
I292
sVlymph nodes
p3391
I3185
sV[linked] malignant tumour of biliary tract
p3392
I1051
sV[linked] tumor of PNS
p3393
I1360
sVhail
p3394
I2699
sV[linked] Tetanus
p3395
I460
sV[linked] retinal vascular disease
p3396
I1280
sV[linked] Impetigo
p3397
I283
sVcorynebacterium diphtheriae
p3398
I2098
sVwarm temperatures
p3399
I4492
sV[linked] congenital hemolytic anemia
p3400
I695
sVlack of coordination
p3401
I3061
sVinvalid
p3402
I3000
sVdrizzle
p3403
I2289
sV[linked] articular cartilage disorder of ankle and/or foot
p3404
I572
sV[linked] Viral Infection
p3405
I485
sV[linked] erythema
p3406
I804
sVpesticides
p3407
I3598
sVasian tiger mosquito
p3408
I1586
sV[linked] degeneration of retina
p3409
I718
sVTB
p3410
I115
sV[linked] disorder of nasal sinus
p3411
I764
sVrubella
p3412
I3901
sVelements
p3413
I2357
sV[linked] beastly
p3414
I599
sVrabies
p3415
I3774
sVtrades
p3416
I4326
sVhives
p3417
I2822
sV[linked] disorder of cecum
p3418
I751
sVback pain
p3419
I1632
sVcontact dermatitis
p3420
I2054
sVmarburg hemorrhagic fever
p3421
I3226
sV[linked] Urban typhus
p3422
I482
sVAS
p3423
I9
sVcoagulopathy
p3424
I2004
sV[linked] cardiomyopathy
p3425
I649
sVinfectious bronchitis virus
p3426
I2931
sV[linked] Cranial nerve disorder
p3427
I206
sV[linked] inflammatory bowel disease
p3428
I933
sVmesentery
p3429
I3271
sV[linked] malignant Gynecologic tumor
p3430
I1013
sVshrub
p3431
I4021
sVmechanical transmission
p3432
I3244
sVdifficulty swallowing
p3433
I2238
sV[linked] Hemolytic anemias
p3434
I266
sV[linked] psychosomatic disorder
p3435
I1231
sVreactive arthritis
p3436
I3799
sVafrican tick bite fever
p3437
I1471
sVnecrotizing fasciitis
p3438
I3418
sV[linked] Joint ankylosis of the hand
p3439
I306
sV[linked] thorax neoplasm
p3440
I1349
sVhard palate
p3441
I2714
sVthrombosis
p3442
I4276
sVsawyer
p3443
I3937
sVdelta
p3444
I2202
sVsummit
p3445
I4183
sVurgency
p3446
I4408
sV[linked] cancer of reproductive system
p3447
I644
sV[linked] endocrine system disease
p3448
I799
sVparamedic
p3449
I3549
sV[linked] cardiovascular system symptom
p3450
I651
sVh1n1 virus
p3451
I2683
sVbuffalo
p3452
I1812
sV[linked] postural reaction
p3453
I1211
sV[linked] hypercoagulability state
p3454
I905
sVepistaxis
p3455
I2409
sVrabbit
p3456
I3768
sV[linked] platelet disorder
p3457
I1199
sVsevere pneumonia
p3458
I3993
sVhurricane
p3459
I2865
sVfoot and mouth disease
p3460
I2568
sVscratches
p3461
I3955
sV[linked] Non-neoplastic pulmonary disorder
p3462
I386
sVpenis
p3463
I3580
sVfarms
p3464
I2482
sVfungal
p3465
I2586
sV[linked] Blood disease
p3466
I173
sVwebworm
p3467
I4509
sVacute myeloid leukaemia
p3468
I1449
sV[linked] moneran
p3469
I1078
sV[linked] musculoskeletal system disease
p3470
I1090
sV[linked] Pediculosis, unspecified
p3471
I407
sVmysterious illness
p3472
I3391
sVcaprine arthritis encephalitis
p3473
I1868
sVparotiditis
p3474
I3560
sVzoonoses
p3475
I4565
sVvancomycin resistant enterococci vre
p3476
I4426
sVblowfly
p3477
I1728
sVharvest
p3478
I2718
sV[linked] peripheral neuropathy
p3479
I1185
sV[linked] disorder of connective tissue
p3480
I752
sVgeranium
p3481
I2618
sVsudan ebolavirus
p3482
I4177
sVliver disorder
p3483
I3138
sVe coli infection
p3484
I2314
sVneisseria gonorrhoeae
p3485
I3421
sV[linked] Dilatation of colon
p3486
I219
sVhealthcare worker
p3487
I2735
sVbush meat
p3488
I1833
sVfly
p3489
I2549
sVqueen
p3490
I3764
sVsalmonellosis
p3491
I3922
sVparvo virus
p3492
I3567
sVinhalation
p3493
I2966
sVsevere pain behind the eyes
p3494
I3992
sVbleeding from the nose
p3495
I1699
sVbrachial plexopathy
p3496
I1768
sVmarburg virus disease
p3497
I3229
sVanisakiasis
p3498
I1534
sVEHF
p3499
I41
sVdisseminated infection
p3500
I2257
sVEHD
p3501
I39
sVmuscle spasms
p3502
I3362
sVhydatid disease
p3503
I2868
sVllama
p3504
I3149
sV[linked] hypersensitivity reaction type I disease
p3505
I910
sV[linked] aortic valve disease
p3506
I553
sVliver enlargement
p3507
I3140
sVclement
p3508
I1985
sVnausea
p3509
I3409
sV[linked] sensory system disease
p3510
I1295
sV[linked] race
p3511
I1241
sV[linked] endocardium disease
p3512
I797
sVeschar
p3513
I2432
sVarachnoiditis
p3514
I1565
sVasparagus
p3515
I1587
sVsars cov
p3516
I3934
sV[linked] bile duct tumor
p3517
I608
sVshock
p3518
I4012
sVhepatitis e virus
p3519
I2787
sVcontinuous fever
p3520
I2083
sVanxious
p3521
I1549
sV[linked] Megacolon, other than Hirschsprung's
p3522
I356
sVpemphigus
p3523
I3578
sV[linked] Thrombophilia
p3524
I463
sVFFI
p3525
I48
sVobesity
p3526
I3480
sVchoppy
p3527
I1955
sVinspection
p3528
I2978
sVALD
p3529
I5
sV[linked] Food poisoning due to Clostridium botulinum
p3530
I247
sVacute hemorrhagic conjunctivitis
p3531
I1445
sVneck pain
p3532
I3414
sV[linked] prototherian
p3533
I1228
sVeducators
p3534
I2348
sV[linked] atmosphere
p3535
I575
sVcrow
p3536
I2141
sVretrosternal pain
p3537
I3847
sVcrop
p3538
I2138
sV[linked] renal Failure
p3539
I1249
sV[linked] arthromyalgia
p3540
I566
sVlanguor
p3541
I3074
sVsputum
p3542
I4109
sVgrowers
p3543
I2666
sVdepression
p3544
I2218
sVaids virus
p3545
I1481
sVhealth minister
p3546
I2730
sVdecontaminate
p3547
I2184
sVsweats
p3548
I4198
sV[linked] Ankylosis of joint of forearm
p3549
I134
sVshivers
p3550
I4011
sVinflammation of the
p3551
I2944
sV[linked] renal failure
p3552
I1252
sVanisocoria
p3553
I1536
sVitching
p3554
I3013
sV[linked] laryngeal disease
p3555
I964
sVbronchial pneumonia
p3556
I1796
sVbird
p3557
I1672
sVweak muscle
p3558
I4505
sVkissing bug
p3559
I3047
sVbird deaths
p3560
I1673
sVneck weakness
p3561
I3416
sVEEEV
p3562
I38
sVcaprine arthritis encephalitis virus
p3563
I1869
sVraccoons
p3564
I3777
sVsinuses
p3565
I4036
sV[linked] genetic disease
p3566
I852
sVdengue virus
p3567
I2213
sV[linked] nasal cavity disease
p3568
I1106
sVgeneral symptom
p3569
I2614
sVpoverty
p3570
I3688
sVsink
p3571
I4034
sV[linked] wormy
p3572
I1407
sVdesert
p3573
I2220
sVirritating
p3574
I3005
sVhaff disease
p3575
I2698
sVulcers
p3576
I4372
sV[linked] microorganism
p3577
I1066
sVsurvivor
p3578
I4188
sVnumbness
p3579
I3471
sVcauda equina syndrome
p3580
I1890
sVmouth sores
p3581
I3326
sV[linked] Pneumonia due to other gram-negative bacteria
p3582
I414
sV[linked] pancreas disease
p3583
I1168
sVfasciitis
p3584
I2483
sVrespiratory disease
p3585
I3830
sV[linked] corneal disease
p3586
I710
sV[linked] infectious disease
p3587
I931
sVorangutan
p3588
I3497
sV[linked] ANEMIA NORMOCYTIC
p3589
I127
sVdengue fever
p3590
I2208
sVtoxic shock like syndrome
p3591
I4315
sVblack typhus
p3592
I1689
sVbreathing difficulties
p3593
I1784
sVbrainerd diarrhea
p3594
I1774
sV[linked] encephalopathy
p3595
I795
sVgrower
p3596
I2665
sVmayaro
p3597
I3240
sVerysipeloid
p3598
I2427
sV[linked] Articular cartilage disorder of hand
p3599
I157
sVacne
p3600
I1431
sVdanger
p3601
I2172
sV[linked] commensal bacterial infectious disease
p3602
I692
sVtrachea
p3603
I4321
sV[linked] salivary gland disease
p3604
I1286
sV[linked] Articular cartilage disorder of multiple sites
p3605
I158
sVlassa virus infection
p3606
I3085
sVinfluenza b virus
p3607
I2952
sVrodent
p3608
I3888
sVduck
p3609
I2303
sVavian flu virus
p3610
I1615
sVape
p3611
I1553
sV[linked] developmental disorder of mental health
p3612
I726
sV[linked] Agranulocytosis NOS
p3613
I131
sVmite
p3614
I3297
sV[linked] hemic system symptom
p3615
I877
sVbuboes
p3616
I1808
sVstagnant water
p3617
I4120
sVovaries
p3618
I3512
sVautoimmune disease
p3619
I1608
sVferrets
p3620
I2503
sV[linked] Non-organic sleep disorder
p3621
I388
sVbacterial conjunctivitis
p3622
I1637
sVcrab
p3623
I2114
sVgoat plague
p3624
I2631
sV[linked] Lymphangiopathy, NOS
p3625
I346
sVscreening
p3626
I3956
sVpsoriasis
p3627
I3733
sVzona
p3628
I4564
sVJEV
p3629
I75
sVHFMD
p3630
I63
sVtraumatic stress disorder
p3631
I4332
sVmicrosporidiosis
p3632
I3280
sV[linked] shock
p3633
I1296
sV[linked] vascular disease
p3634
I1376
sVhemodynamic instability
p3635
I2754
sVinfection
p3636
I2922
sV[linked] anthrax disease
p3637
I550
sVunable to sleep
p3638
I4375
sV[linked] viral
p3639
I1383
sVarmadillo
p3640
I1573
sVparvo
p3641
I3566
sVmad cow disease
p3642
I3205
sVbaby
p3643
I1626
sVmeningococcemia
p3644
I3263
sVculex mosquitoes
p3645
I2154
sV[linked] CRF
p3646
I184
sVprophylactic measures
p3647
I3718
sVhigh
p3648
I2805
sV[linked] Prison fever
p3649
I423
sV[linked] rainy
p3650
I1244
sV[linked] epidemic louse-borne typhus
p3651
I801
sVH1N1
p3652
I52
sVaspiration pneumonia
p3653
I1590
sVcontagious bovine pleuropneumonia
p3654
I2073
sV[linked] pleural disease
p3655
I1200
sVcarrot
p3656
I1881
sVhydranencephaly
p3657
I2870
sVbeavers
p3658
I1657
sVguillain barr syndrome
p3659
I2672
sVhuman lymphocytic choriomeningitis virus
p3660
I2854
sVpicornavirus
p3661
I3615
sVcampylobacteriosis
p3662
I1856
sV[linked] high fever
p3663
I896
sVhepatitis a
p3664
I2776
sV[linked] mental or behavioural disorder
p3665
I1062
sVbittersweet
p3666
I1684
sV[linked] Hydrocephalus, nonsyndromic, autosomal recessive
p3667
I278
sV[linked] respiratory insufficiency/failure
p3668
I1270
sV[linked] arbovirus
p3669
I558
sVHPAI
p3670
I68
sVundiagnosed respiratory illness
p3671
I4389
sV[linked] respiratory system and chest symptom
p3672
I1271
sV[linked] Other myeloid leukemia NOS
p3673
I399
sVhepatitis c
p3674
I2781
sV[linked] Encephalomyelitis NOS
p3675
I230
sV[linked] neoplasm of liver
p3676
I1118
sV[linked] enteritis
p3677
I800
sVhepatitis d
p3678
I2784
sVhepatitis e
p3679
I2786
sVaustralian tick typhus
p3680
I1606
sV[linked] neurodegenerative disease
p3681
I1135
sVfoot and mouth
p3682
I2567
sVbend
p3683
I1663
sVhepatitis b
p3684
I2778
sVequine infectious anemia
p3685
I2420
sV[linked] sweaty
p3686
I1329
sVmysterious ailment
p3687
I3389
sV[linked] Spotted fever group rickettsial disease
p3688
I455
sVlamb
p3689
I3070
sVmuscle tissue
p3690
I3363
sVcongenital heart disease
p3691
I2041
sVsyndrome
p3692
I4228
sVHIV
p3693
I66
sVscarring
p3694
I3945
sVbluetongue
p3695
I1731
sVcontagious ecthyma
p3696
I2075
sV[linked] acute cholecystitis
p3697
I507
sVpoisonous plant
p3698
I3658
sVbacteremia
p3699
I1634
sVbody fatigue
p3700
I1737
sVforest
p3701
I2573
sVanimal
p3702
I1530
sVlivestock movement
p3703
I3145
sVs aureus
p3704
I3908
sVtyphus epidemic
p3705
I4371
sVdecreased milk production
p3706
I2190
sVpneumococcus
p3707
I3651
sV[linked] middle ear disease - other
p3708
I1068
sVmuscle weakness
p3709
I3365
sVEV71
p3710
I45
sVlesion
p3711
I3115
sVwaded
p3712
I4490
sVvalley fever
p3713
I4423
sVfarm
p3714
I2478
sVclostridium
p3715
I1990
sV[linked] hyperpiesia
p3716
I906
sVleukemia
p3717
I3121
sV[linked] Dengue Fever
p3718
I208
sVmeningeal irritation
p3719
I3257
sVchlamydia infection
p3720
I1943
sVdiscomfort
p3721
I2249
sVdyspnoea
p3722
I2310
sVfatigue
p3723
I2484
sVmultiple myeloma
p3724
I3344
sV[linked] leukemia
p3725
I970
sVfits
p3726
I2524
sVHGE
p3727
I65
sVprostate
p3728
I3721
sVviral meningitis
p3729
I4472
sV[linked] non-neoplastic lung disorder
p3730
I1138
sVwinter
p3731
I4536
sVtomato
p3732
I4300
sVcontact with nose
p3733
I2065
sVmarburg fever
p3734
I3224
sVsnail
p3735
I4072
sVarthralgia
p3736
I1579
sVhantavirus cardiopulmonary syndrome
p3737
I2710
sVhemorrhagic manifestations
p3738
I2767
sVenthesopathy
p3739
I2394
sVcorral
p3740
I2096
sVrocky mountain wood tick
p3741
I3886
sVevergreen
p3742
I2442
sVphysician
p3743
I3611
sVelectrolyte imbalance
p3744
I2356
sVconjunctival hyperemia
p3745
I2047
sVswimming
p3746
I4207
sV[linked] animal
p3747
I535
sV[linked] Retinal tumor
p3748
I444
sVsick people
p3749
I4027
sV[linked] herpes simplex
p3750
I894
sV[linked] Arteriosclerotic cardiovascular disease
p3751
I144
sVcryptosporidiosis
p3752
I2150
sVcarditis
p3753
I1879
sVepidemiologist
p3754
I2402
sV[linked] mildness
p3755
I1072
sVvaccinated
p3756
I4418
sVmove
p3757
I3327
sVpulmonary tuberculosis
p3758
I3743
sV[linked] Diffuse idiopathic pulmonary fibrosis
p3759
I218
sVswollen glands
p3760
I4220
sVprimates
p3761
I3710
sVunidentified disease
p3762
I4396
sV[linked] hydrocephalus
p3763
I902
sVbleeding gums
p3764
I1700
sVsubstance abuse
p3765
I4174
sV[linked] lymph node disease
p3766
I993
sV[linked] renal failure NOS
p3767
I1254
sV[linked] Liver disorder in pregnancy - delivered
p3768
I330
sV[linked] High blood pressure (& [essential hypertension])
p3769
I273
sVheart disease
p3770
I2739
sVinlet
p3771
I2969
sV[linked] male reproductive system disease
p3772
I1009
sVrickettsial
p3773
I3866
sVSTSS
p3774
I114
sVbrook
p3775
I1801
sValtered mental status
p3776
I1511
sVschmallenberg
p3777
I3949
sV[linked] hepatobiliary disease
p3778
I889
sVeasterly
p3779
I2324
sVairport officials
p3780
I1485
sV[linked] primary systemic mycosis
p3781
I1221
sV[linked] bronchial disease
p3782
I636
sVmumps
p3783
I3347
sVpoop
p3784
I3673
sVphysicians
p3785
I3612
sVmosquito borne encephalitis
p3786
I3315
sVnervousness
p3787
I3434
sVsores
p3788
I4086
sVelephant
p3789
I2358
sVhemochromatosis
p3790
I2752
sVdock
p3791
I2267
sVmorbid obesity
p3792
I3310
sVhands
p3793
I2706
sVavian influenza a h5n1
p3794
I1617
sVhuman granulocytic anaplasmosis
p3795
I2848
sVrapidly proliferating
p3796
I3791
sV[linked] skin disease
p3797
I1301
sVdouble vision
p3798
I2282
sVfeeling of weakness
p3799
I2493
sVcoriander
p3800
I2089
sV[linked] fever
p3801
I829
sVpleural effusion
p3802
I3646
sVgoldenrod
p3803
I2637
sVparainfluenza virus
p3804
I3544
sVmyocarditis
p3805
I3385
sVcontact with tissues
p3806
I2070
sVvegetable
p3807
I4437
sV[linked] hypersensitivity reaction type II disease
p3808
I911
sVmole
p3809
I3300
sVweather
p3810
I4508
sVmountain fever
p3811
I3321
sV[linked] inflammation of lung tissue
p3812
I932
sV[linked] Other myeloid leukemia without mention of remission
p3813
I401
sVsilicosis
p3814
I4029
sV[linked] Articular cartilage disorder of the forearm
p3815
I161
sVtumors
p3816
I4358
sVproteinuria
p3817
I3724
sVhemorrhagic fever
p3818
I2764
sVgastric disease
p3819
I2602
sV[linked] disorder of urethra
p3820
I773
sV[linked] leprosy
p3821
I969
sV[linked] nose symptom
p3822
I1144
sV[linked] agnosia
p3823
I521
sVskin disease
p3824
I4043
sVmotion sickness
p3825
I3319
sV[linked] acute on chronic cholecystitis
p3826
I512
sV[linked] placental
p3827
I1193
sVh1n1 flu virus
p3828
I2682
sVrainy
p3829
I3783
sV[linked] feeding difficulties and mismanagement
p3830
I824
sVdifficulty sleeping
p3831
I2237
sVdifficulty concentrating
p3832
I2233
sVirritability
p3833
I3004
sVparasitologists
p3834
I3554
sVsoutherly
p3835
I4088
sVrigors
p3836
I3873
sV[linked] Connective tissue disorder
p3837
I200
sVRHDV
p3838
I101
sVCEM
p3839
I20
sVwaterborne illness
p3840
I4498
sVcutaneous leishmaniasis
p3841
I2164
sVbunyavirus
p3842
I1823
sV[linked] Pediculosis and phthirus infestation
p3843
I406
sV[linked] bacteria
p3844
I588
sVundiagnosed fatal illness
p3845
I4387
sVmeningoencephalitis
p3846
I3265
sV[linked] prion induced disorder
p3847
I1224
sVflushing
p3848
I2548
sV[linked] interstitial lung disease
p3849
I944
sVdengue fever virus
p3850
I2209
sVe coli o157 h7
p3851
I2316
sVqueen bee
p3852
I3765
sV[linked] myeloproliferative disease
p3853
I1097
sVspongy
p3854
I4102
sVlegionella pneumonia
p3855
I3094
sV[linked] rubor
p3856
I1284
sVthrush
p3857
I4279
sVrespiratory droplets
p3858
I3833
sV[linked] fly
p3859
I835
sV[linked] intestinal coccidiosis
p3860
I946
sV[linked] flu
p3861
I834
sVCSF
p3862
I28
sVequine influenza
p3863
I2422
sVmental confusion
p3864
I3266
sVgrasshopper
p3865
I2650
sV[linked] disorder of nasal cavity
p3866
I763
sVhematemesis
p3867
I2745
sV[linked] pyoderma
p3868
I1238
sV[linked] Proteinuria NOS (context-dependent category)
p3869
I427
sVspasticity
p3870
I4093
sVvoles
p3871
I4485
sV[linked] animalise
p3872
I538
sV[linked] cardiovascular system disease
p3873
I650
sVmarmots
p3874
I3234
sVriver
p3875
I3879
sV[linked] malignant osseous tumor
p3876
I1044
sVparainfluenza virus infection
p3877
I3545
sV[linked] substance-related disorder
p3878
I1327
sVcanine flu
p3879
I1861
sVsleeping sickness
p3880
I4061
sVmovement of livestock
p3881
I3331
sVundiagnosed disease
p3882
I4385
sVpigs
p3883
I3622
sVsevere conjunctivitis
p3884
I3984
sVwading
p3885
I4491
sVfeeding difficulties
p3886
I2492
sVchills
p3887
I1935
sVabnormal behaviour
p3888
I1423
sV[linked] liver disorder
p3889
I980
sVlumpy skin disease
p3890
I3173
sVsea cucumber
p3891
I3959
sVstudent
p3892
I4164
sVenlargement of the
p3893
I2383
sVglanders
p3894
I2627
sVfloral
p3895
I2542
sV[linked] acute cholecystitis NOS
p3896
I508
sV[linked] pneumonitis
p3897
I1205
sVplacental
p3898
I3631
sVdengue hemorrhagic fever
p3899
I2211
sVimpaired vision
p3900
I2903
sVcatarrhal fever
p3901
I1886
sV[linked] ear disorder NOS
p3902
I784
sVhepatosplenomegaly
p3903
I2791
sVbloody stools
p3904
I1724
sVbody weakness
p3905
I1739
sVmonkey
p3906
I3302
sVsuperficial keratitis
p3907
I4185
sVecthyma
p3908
I2342
sVbacillus anthracis
p3909
I1631
sVsevere fever with thrombocytopenia syndrome
p3910
I3986
sVeastern equine encephalitis virus
p3911
I2326
sVfacial palsy
p3912
I2467
sV[linked] Hemorrhagic disease
p3913
I269
sVASF
p3914
I10
sVburial
p3915
I1824
sV[linked] Arteriosclerotic vascular disease
p3916
I146
sVjellyfish
p3917
I3026
sV[linked] malignant neoplasm of colon with rectum
p3918
I1026
sVASM
p3919
I11
sVlow
p3920
I3162
sVixodes
p3921
I3018
sVh3n2 flu virus
p3922
I2684
sVstomach
p3923
I4139
sV[linked] urethra disorder
p3924
I1367
sVgoiter
p3925
I2634
sV[linked] extrinsic cardiomyopathy
p3926
I811
sV[linked] polyneuropathy
p3927
I1207
sVenvironmental
p3928
I2395
sVhealthcare workers
p3929
I2736
sV[linked] Syphilis NOS
p3930
I457
sV[linked] globe disease
p3931
I855
sV[linked] RETINA degeneration
p3932
I436
sV[linked] Echinococcosis, unspecified, of liver
p3933
I225
sVcongenital
p3934
I2039
sVchanges in personality
p3935
I1913
sVbuttocks
p3936
I1840
sVbloat
p3937
I1706
sVisolation
p3938
I3009
sV[linked] malignant neoplasm of female genital organ
p3939
I1027
sVbee
p3940
I1659
sVpurpura
p3941
I3751
sV[linked] CHD - Coronary heart disease
p3942
I182
sV[linked] eye and adnexa disease
p3943
I812
sV[linked] congenital neurologic anomaly
p3944
I697
sVsultry
p3945
I4181
sVhuman influenza
p3946
I2853
sVliver dysfunction
p3947
I3139
sV[linked] Retinal abnormality - diabetes-related
p3948
I442
sV[linked] seizure
p3949
I1292
sV[linked] Contact eczema
p3950
I204
sV[linked] nutrition disease
p3951
I1145
sVhealth authority
p3952
I2727
sV[linked] tumor of the nervous system
p3953
I1362
sVphytoplankton
p3954
I3613
sV[linked] Liver disease
p3955
I327
sVmicrobial
p3956
I3276
sVsensory disturbances
p3957
I3970
sV[linked] Tuberculosis of mother, with delivery
p3958
I464
sVmegacolon
p3959
I3251
sV[linked] Lens disorder
p3960
I319
sVmycobacteria
p3961
I3375
sVlung infection
p3962
I3177
sVbordetella pertussis
p3963
I1749
sVdementia
p3964
I2203
sVbark
p3965
I1646
sVpathogen
p3966
I3572
sV[linked] Disseminated candidiasis
p3967
I220
sVturtles
p3968
I4363
sVpulmonary edema
p3969
I3740
sV[linked] urethral disorder, unspecified
p3970
I1369
sVpreterm
p3971
I3703
sV[linked] invertebrate
p3972
I950
sVVZV
p3973
I124
sV[linked] syndrome
p3974
I1330
sV[linked] respiratory system disease
p3975
I1272
sVarbovirus encephalitis
p3976
I1567
sVtracheobronchitis
p3977
I4322
sVwhooping cough
p3978
I4529
sV[linked] hair disease
p3979
I864
sVhigh blood pressure
p3980
I2806
sV[linked] non-resectable primary hepatic malignant neoplasm
p3981
I1141
sV[linked] viral meningitis
p3982
I1386
sV[linked] Hematologic neoplasm
p3983
I262
sVtrypanosomiasis african
p3984
I4350
sVexcessive sweating
p3985
I2447
sV[linked] Metabolic hereditary disorder
p3986
I358
sV[linked] inability to comprehend language
p3987
I921
sVrapid respiration
p3988
I3790
sVdisseminated tuberculosis
p3989
I2259
sV[linked] bacterial
p3990
I589
sV[linked] inherited metabolic disorder
p3991
I936
sV[linked] reproductive organ cancer
p3992
I1260
sV[linked] Arteriosclerosis
p3993
I141
sVlyme borreliosis
p3994
I3182
sVPRRS
p3995
I98
sVswine plague
p3996
I4218
sVcontact with infected
p3997
I2060
sVconstipated
p3998
I2050
sVgendarmerie
p3999
I2613
sVyellow fever virus
p4000
I4557
sVthrombocytopenia
p4001
I4275
sVrigor
p4002
I3872
sVsand fly
p4003
I3925
sVcracking
p4004
I2116
sVlesions in the brain
p4005
I3117
sVSLE
p4006
I110
sVcamped
p4007
I1852
sVsleep apnea
p4008
I4058
sVtired
p4009
I4296
sV[linked] disorder of uveal tract
p4010
I774
sVdeath
p4011
I2183
sVtenrec
p4012
I4251
sVchronic bronchitis
p4013
I1958
sV[linked] backache
p4014
I587
sVatypical
p4015
I1603
sV[linked] myeloproliferative neoplasm
p4016
I1099
sVface
p4017
I2465
sV[linked] Human immunodeficiency virus infectious disease
p4018
I275
sVspinal cord
p4019
I4095
sV[linked] Articular cartilage disorder involving forearm
p4020
I149
sVcommon cold
p4021
I2028
sV[linked] urinary tract disease
p4022
I1373
sV[linked] Filariasis, unspecified
p4023
I243
sVallergic contact dermatitis
p4024
I1500
sVinfluenza a h3n2 virus
p4025
I2948
sV[linked] pachyderm
p4026
I1162
sVswine flu h1n1
p4027
I4212
sVatmosphere
p4028
I1598
sVrectal bleeding
p4029
I3800
sVhurricanes
p4030
I2866
sV[linked] digestive system symptom
p4031
I734
sVhantavirus pulmonary syndrome
p4032
I2713
sVantelope
p4033
I1541
sV[linked] chronic lymphadenitis
p4034
I670
sVprecipitation
p4035
I3696
sV[linked] Leucodystrophy NOS
p4036
I321
sVhighly pathogenic bird flu
p4037
I2810
sVhealthcare personnel
p4038
I2734
sVurinary incontinence
p4039
I4411
sVFMDV
p4040
I50
sVchicken
p4041
I1922
sVgasping
p4042
I2600
sVstuffed up nose
p4043
I4166
sVtrichomoniasis
p4044
I4344
sV[linked] myxovirus
p4045
I1103
sVestuary
p4046
I2439
sVclostridium chauvoei
p4047
I1993
sVjaw
p4048
I3025
sVsandfly fever naples virus
p4049
I3927
sV[linked] Resectable malignant neoplasm of Liver
p4050
I441
sVsleep disorder
p4051
I4059
sVneospora caninum
p4052
I3427
sVbug
p4053
I1814
sVdifficulty in breathing
p4054
I2235
sVcontaminated needles
p4055
I2079
sVindirect contact
p4056
I2915
sV[linked] somatoform disorder
p4057
I1310
sV[linked] naked mole rat
p4058
I1104
sV[linked] racer
p4059
I1242
sVplacenta
p4060
I3630
sVtrouble sleeping
p4061
I4345
sV[linked] pyrexia
p4062
I1239
sV[linked] malignant tumor
p4063
I1046
sVpets
p4064
I3603
sVrift valley fever virus infection
p4065
I3871
sVbody ache
p4066
I1735
sV[linked] thoracic cancer
p4067
I1346
sVarrhythmia
p4068
I1576
sVbear
p4069
I1655
sVgastroenteritis
p4070
I2604
sVjoint
p4071
I3027
sVmalaise
p4072
I3210
sVstuffy nose
p4073
I4167
sV[linked] anaemia
p4074
I533
sVpotato vine
p4075
I3687
sV[linked] reproductive system symptom
p4076
I1262
sVhemoglobinopathies
p4077
I2755
sV[linked] rash
p4078
I1246
sVcrabs
p4079
I2115
sV[linked] pleurisy
p4080
I1201
sVabdominal distention
p4081
I1420
sVhepatitis c infection
p4082
I2782
sVbrain
p4083
I1769
sVgust
p4084
I2679
sVquarantine
p4085
I3762
sV[linked] malignant bone neoplasm
p4086
I1016
sV[linked] disorder of the nose
p4087
I771
sV[linked] hematopoietic system disease
p4088
I874
sVgood weather
p4089
I2642
sVinsectivorous
p4090
I2974
sV[linked] disease of liver [Ambiguous]
p4091
I744
sV[linked] Idiopathic fibrosing alveolitis
p4092
I282
sV[linked] overnutrition
p4093
I1161
sV[linked] mite infestation
p4094
I1074
sVblack flies
p4095
I1687
sVweight gain
p4096
I4513
sV[linked] idiopathic interstitial pneumonia
p4097
I916
sVembryonic
p4098
I2362
sV[linked] movement disease
p4099
I1084
sV[linked] epiphytic
p4100
I802
sVy enterocolitica
p4101
I4548
sV[linked] inner ear disease
p4102
I937
sVturkeys
p4103
I4360
sVabdominal pain
p4104
I1421
sVbite of an infected animal
p4105
I1679
sVcanine
p4106
I1859
sVfreeze
p4107
I2581
sVteeth grinding
p4108
I4247
sVcholera vibrio cholerae
p4109
I1953
sVCRF
p4110
I27
sVsouth american trypanosomiasis
p4111
I4087
sVdirect contact
p4112
I2242
sVoophoritis
p4113
I3490
sV[linked] autoimmune disease
p4114
I579
sV[linked] protoctist
p4115
I1227
sV[linked] taeniasis
p4116
I1339
sVstill
p4117
I4135
sVstrawberry
p4118
I4151
sVph
p4119
I3604
sVclearing
p4120
I1984
sV[linked] Dermatitis [Ambiguous]
p4121
I211
sV[linked] Syphilis, unspecified
p4122
I458
sVbabesiosis
p4123
I1625
sVWNV
p4124
I125
sV[linked] acute Lymphadenitis
p4125
I500
sV[linked] worm
p4126
I1406
sVebola
p4127
I2332
sV[linked] prion disease
p4128
I1223
sV[linked] disorder of middle ear
p4129
I762
sVlymphocytic choriomeningitis virus
p4130
I3192
sVcommunity health worker
p4131
I2032
sV[linked] breezy
p4132
I635
sV[linked] west wind
p4133
I1399
sVP2
p4134
I92
sV[linked] malignant tumor of retina
p4135
I1050
sVlow grade fever
p4136
I3167
sV[linked] thorax cancer
p4137
I1348
sVsin nombre virus
p4138
I4033
sVequine piroplasmosis
p4139
I2423
sVchikungunya fever
p4140
I1930
sVbuffalos
p4141
I1813
sVtermite
p4142
I4253
sVequine rhinopneumonitis
p4143
I2424
sV[linked] leukodystrophy
p4144
I972
sVfeline immunodeficiency virus
p4145
I2495
sVneurocysticercosis
p4146
I3438
sVchest discomfort
p4147
I1917
sVcommon house mouse
p4148
I2029
sVshigellosis
p4149
I4008
sVescherichia coli
p4150
I2434
sV[linked] diabetic retinopathy
p4151
I727
sVvariant creutzfeldt jakob disease
p4152
I4429
sV[linked] ocular cancer
p4153
I1149
sVunderlying medical condition
p4154
I4381
sV[linked] bone marrow disorder
p4155
I624
sVincident
p4156
I2908
sVy pestis
p4157
I4549
sV[linked] granulocytopenia
p4158
I861
sVtickborne
p4159
I4291
sVswim
p4160
I4204
sVLCM
p4161
I76
sVdischarge from the eye
p4162
I2246
sVcold weather
p4163
I2015
sVsouthwesterly
p4164
I4089
sV[linked] non-neoplastic nasal cavity disease
p4165
I1139
sVchikungunya
p4166
I1929
sVacute conjunctivitis
p4167
I1438
sVjakob creutzfeldt disease
p4168
I3020
sVencephalitozoon cuniculi
p4169
I2370
sV[linked] bat
p4170
I598
sVcentral nervous system vasculitis
p4171
I1899
sVpost traumatic stress disorder
p4172
I3684
sVrespiratory distress syndrome
p4173
I3832
sV[linked] peripheral nervous system neoplasm
p4174
I1184
sVpetechiae
p4175
I3601
sVchorioretinitis
p4176
I1956
sVataxia
p4177
I1596
sV[linked] malaria
p4178
I1003
sVdeer tick
p4179
I2195
sVpinworm
p4180
I3627
sVbronchiectasis
p4181
I1797
sVbestial
p4182
I1664
sV[linked] parasitic infectious disease
p4183
I1175
sV[linked] Mast cell hyperplasia
p4184
I350
sVbluetongue virus
p4185
I1733
sV[linked] malignant neoplasm of bone marrow
p4186
I1024
sVrespiratory arrest
p4187
I3829
sVhaemorrhage
p4188
I2697
sVhepatoma
p4189
I2789
sVreindeer
p4190
I3815
sVmacaques
p4191
I3199
sVblocked nose
p4192
I1710
sVyak
p4193
I4550
sVpia
p4194
I3614
sVsylvatic yellow fever
p4195
I4225
sV[linked] Hemorrhagic diathesis
p4196
I268
sVlower respiratory tract
p4197
I3170
sVpure red cell aplasia
p4198
I3749
sVbutchers
p4199
I1837
sVmuscle aches
p4200
I3355
sV[linked] hematopoietic cancer
p4201
I872
sVchlamydia
p4202
I1942
sVmuscle ache
p4203
I3354
sVstillborn
p4204
I4137
sVfarmer
p4205
I2479
sVforeshore
p4206
I2572
sV[linked] Adenopathy
p4207
I129
sV[linked] Petechial fever
p4208
I408
sVbull
p4209
I1817
sV[linked] Puumala virus nephropathy
p4210
I428
sV[linked] eubacteria
p4211
I805
sVacute hepatitis
p4212
I1446
sVrespiratory illness
p4213
I3835
sVepstein barr virus
p4214
I2414
sV[linked] dog
p4215
I777
sVatmospheric
p4216
I1599
sVsanitation
p4217
I3929
sVplain
p4218
I3633
sV[linked] ankylosis of joint of pelvic region and thigh
p4219
I544
sVerysipelas
p4220
I2426
sVjapanese spotted fever
p4221
I3023
sV[linked] lymphatic system symptom
p4222
I998
sVsaint louis encephalitis virus
p4223
I3912
sVhuman enterovirus 71 hev71
p4224
I2846
sVtoxic megacolon
p4225
I4313
sVbabesia
p4226
I1624
sVcoronary disease
p4227
I2091
sV[linked] wildflower
p4228
I1401
sVgroin
p4229
I2658
sV[linked] Articular cartilage disorder involving upper arm
p4230
I154
sVwesterly
p4231
I4521
sVannual
p4232
I1537
sV[linked] megacolon
p4233
I1060
sV[linked] Pyelonephritis
p4234
I432
sVnasopharyngitis
p4235
I3406
sV[linked] Post Kala-Azar Dermal Leishmaniasis
p4236
I419
sVvisceral leishmaniasis
p4237
I4479
sV[linked] mixed pediculosis
p4238
I1075
sV[linked] Polyneuropathy, unspecified
p4239
I418
sVhantavirus
p4240
I2709
sVupper respiratory infection
p4241
I4403
sVaggressiveness
p4242
I1476
sVinspector
p4243
I2980
sV[linked] the runs
p4244
I1345
sVleafhopper
p4245
I3090
sVcremation
p4246
I2126
sVpappataci fever
p4247
I3541
sVdenial
p4248
I2214
sVhantavirus infection
p4249
I2712
sVsteer
p4250
I4130
sVmystery disease
p4251
I3394
sVcontagious equine metritis
p4252
I2076
sVplaques
p4253
I3638
sV[linked] Epidemic (louse-borne) typhus
p4254
I232
sVyersinia pestis
p4255
I4561
sVGAS
p4256
I51
sVbone cancer
p4257
I1745
sVculex quinquefasciatus
p4258
I2155
sVPPR
p4259
I97
sVfilariasis
p4260
I2513
sVacute pain
p4261
I1450
sV[linked] Infection due to clostridium botulinum
p4262
I290
sVhepatic dysfunction
p4263
I2773
sVcysticercosis
p4264
I2170
sV[linked] Lice infestation, NOS
p4265
I325
sV[linked] Myeloid leukemia, NOS, without mention of remission
p4266
I369
sV[linked] malignant Epithelioma
p4267
I1012
sVunusual pneumonia
p4268
I4401
sVsucculent
p4269
I4175
sVarbovirus
p4270
I1566
sV[linked] paranasal sinus disorder
p4271
I1171
sV[linked] malignant neoplasm of male genital organ, NOS
p4272
I1037
sVlarva
p4273
I3078
sVpainful urination
p4274
I3532
sVscratched
p4275
I3954
sVovercrowded
p4276
I3514
sV[linked] Pediculosis and phthirus infections
p4277
I405
sVpainful
p4278
I3530
sVwatery diarrhea
p4279
I4501
sV[linked] male horse
p4280
I1007
sV[linked] respiratory failure (context-dependent category)
p4281
I1267
sVeastern equine encephalitis virus infection
p4282
I2327
sVcultivar
p4283
I2158
sV[linked] Myeloid leukaemia
p4284
I364
sV[linked] Ca liver - primary
p4285
I186
sVlupus
p4286
I3180
sVdeer fly
p4287
I2192
sVhyperpigmentation
p4288
I2880
sV[linked] Cartilage disorder
p4289
I190
sV[linked] Leukopenia
p4290
I324
sV[linked] Liver disorder in pregnancy
p4291
I329
sVneurological dysfunction
p4292
I3443
sVovercast
p4293
I3513
sVfever
p4294
I2507
sVbody pain
p4295
I1738
sV[linked] Non-Lymphocytic Leukemia
p4296
I383
sV[linked] atmospheric
p4297
I576
sVdrone
p4298
I2290
sVgonococcus
p4299
I2639
sVARF
p4300
I8
sVbubonic plague
p4301
I1809
sVmules
p4302
I3340
sV[linked] Articular cartilage disorder of the pelvic region and thigh
p4303
I163
sVmuscle
p4304
I3353
sV[linked] wind
p4305
I1403
sVgastrointestinal disease
p4306
I2608
sVfetal
p4307
I2505
sVbottom
p4308
I1755
sVteacher
p4309
I4242
sVchild
p4310
I1932
sVcamel
p4311
I1847
sV[linked] blood disorder
p4312
I615
sVdiarrhea
p4313
I2229
sV[linked] Infection by Taeniarhynchus saginatus
p4314
I287
sVspirochete
p4315
I4097
sVBT
p4316
I14
sVflea
p4317
I2532
sVBV
p4318
I15
sV[linked] Unspecified disorder of ear
p4319
I474
sVsubconjunctival bleeding
p4320
I4171
sV[linked] fossorial mammal
p4321
I838
sVbiologist
p4322
I1669
sV[linked] demyelinating disease
p4323
I721
sVbloody diarrhea
p4324
I1721
sV[linked] renal cancer
p4325
I1250
sVklebsiella pneumoniae
p4326
I3050
sV[linked] Blindness and low vis.
p4327
I171
sVtheileriosis
p4328
I4265
sVdensity
p4329
I2216
sVlake
p4330
I3069
sVneurological diseases
p4331
I3442
sVbench
p4332
I1662
sV[linked] Botulism poisoning
p4333
I176
sVnarcolepsy
p4334
I3401
sVnephropathia epidemica
p4335
I3430
sVdifficulty breathing
p4336
I2232
sVherdsman
p4337
I2795
sVlymphopenia
p4338
I3195
sVskin abscess
p4339
I4040
sVmyiasis
p4340
I3384
sVearthquakes
p4341
I2323
sV[linked] Contact dermatitis/eczema
p4342
I203
sVmurine
p4343
I3349
sVmesenteric lymphadenitis
p4344
I3270
sVkidney
p4345
I3038
sVotitis
p4346
I3509
sVbiologists
p4347
I1670
sVcrimean haemorrhagic fever
p4348
I2135
sVprofuse salivation
p4349
I3714
sVinfluenza a virus
p4350
I2949
sVhaemolysis
p4351
I2694
sV[linked] hemorrhagic disease
p4352
I882
sVseizure
p4353
I3967
sVviral pneumonia
p4354
I4473
sVpox
p4355
I3691
sVatrophy
p4356
I1601
sV[linked] Joint ankylosis of the ankle and foot
p4357
I303
sVtick
p4358
I4282
sVSLEV
p4359
I111
sVpoliovirus type 3
p4360
I3665
sVpoliovirus type 2
p4361
I3664
sV[linked] neoplasm of male genital organ
p4362
I1119
sVfleas
p4363
I2534
sV[linked] ANEMIA HEMOLYTIC
p4364
I126
sVferal
p4365
I2499
sVvancomycin resistant enterococcus
p4366
I4427
sVtopography
p4367
I4304
sVhygiene
p4368
I2873
sVlisteria infection
p4369
I3130
sV[linked] virus
p4370
I1387
sVinflammation of the stomach
p4371
I2945
sV[linked] Tumour of connective tissue
p4372
I468
sVextreme exhaustion
p4373
I2456
sV[linked] Viral infection NOS
p4374
I487
sVchick
p4375
I1921
sVunable to fly
p4376
I4374
sVsoft
p4377
I4077
sVprophylaxis
p4378
I3719
sVchronic hepatitis
p4379
I1961
sV[linked] systemic mycosis
p4380
I1336
sVneisseria meningitidis
p4381
I3422
sV[linked] malignant neoplasm of liver
p4382
I1032
sV[linked] blood coagulation disease
p4383
I614
sVepizootic haemorrhagic disease
p4384
I2410
sV[linked] pneumoconiosis
p4385
I1203
sVnaval
p4386
I3411
sV[linked] algal
p4387
I527
sV[linked] Hydrocephalus
p4388
I276
sVmosquitoes
p4389
I3317
sVhair
p4390
I2700
sVdecreased immunity
p4391
I2189
sVswine influenza
p4392
I4214
sVpulmonary hypertension
p4393
I3742
sVEEE
p4394
I37
sVvenezuelan equine encephalitis
p4395
I4438
sVmystery illness
p4396
I3395
sV[linked] ear and mastoid disease
p4397
I781
sVhypokalemia
p4398
I2886
sVswollen tongue
p4399
I4223
sV[linked] Ankylosis of joint of ankle and/or foot
p4400
I133
sVarteriosclerosis
p4401
I1578
sVpinkeye
p4402
I3625
sVdunes
p4403
I2305
sVclassic dengue
p4404
I1979
sVcorpse
p4405
I2094
sVbacillus
p4406
I1630
sV[linked] optic nerve disease
p4407
I1152
sVmild fever
p4408
I3289
sVvesper mouse
p4409
I4446
sVgum bleeding
p4410
I2678
sVseep
p4411
I3966
sVstudents
p4412
I4165
sVvampire bats
p4413
I4425
sVbovine viral diarrhea virus
p4414
I1767
sVinflammation
p4415
I2942
sV[linked] protozoan
p4416
I1229
sVviral hepatitis a
p4417
I4469
sVhemolytic anemia
p4418
I2758
sVmarine animal
p4419
I3231
sV[linked] urethra disease
p4420
I1366
sVundulant fever
p4421
I4390
sV[linked] genetic skin disease
p4422
I853
sVmeliodosis
p4423
I3254
sVleishmaniasis visceral
p4424
I3105
sVslum
p4425
I4066
sV[linked] parasitic protozoa infectious disease
p4426
I1176
sVneisseria gonorrhea
p4427
I3420
sV[linked] vascular hypertensive disorder
p4428
I1377
sVslug
p4429
I4064
sVguinea fowl
p4430
I2673
sVtsetse fly
p4431
I4351
sViris
p4432
I3003
sV[linked] pericardium disease
p4433
I1180
sVgss syndrome
p4434
I2668
sVnight sweats
p4435
I3453
sVrespiratory infection
p4436
I3836
sVscabby mouth
p4437
I3938
sVingest
p4438
I2959
sV[linked] metabolic disease
p4439
I1063
sVcamels
p4440
I1850
sVsweat
p4441
I4196
sVinfectious salmon anemia virus
p4442
I2937
sVtongue
p4443
I4301
sVmarburg virus
p4444
I3228
sVred face
p4445
I3808
sV[linked] Myeloproliferative disorder
p4446
I378
sV[linked] nasopharyngeal disease
p4447
I1111
sVnanny
p4448
I3399
sVtourists
p4449
I4310
sV[linked] chronic hepatitis
p4450
I668
sVinfected animals
p4451
I2921
sVskin lesion
p4452
I4046
sVvertebrate
p4453
I4442
sVconversion disorder
p4454
I2084
sV[linked] alimentary system disease
p4455
I528
sVchronic
p4456
I1957
sVviral hemorrhagic septicemia
p4457
I4467
sVnematode
p4458
I3423
sVlung
p4459
I3175
sV[linked] dermatitis venenata
p4460
I725
sVfemale
p4461
I2496
sV[linked] Viral meningitis
p4462
I489
sVblurred vision
p4463
I1734
sV[linked] Nutritional disorder
p4464
I390
sV[linked] hot weather
p4465
I898
sV[linked] transmissible spongiform encephalopathy
p4466
I1354
sVepididymo orchitis
p4467
I2405
sVridge
p4468
I3868
sVinfectious disease
p4469
I2933
sVpruritus
p4470
I3729
sVlack of energy
p4471
I3062
sVlarval
p4472
I3079
sVtrypanosoma cruzi
p4473
I4348
sVabrasions
p4474
I1425
sV[linked] Pyelitis
p4475
I429
sVafrican swine fever
p4476
I1469
sVPMC
p4477
I96
sVacute gastroenteritis
p4478
I1444
sV[linked] nerve sheath tumor
p4479
I1125
sVexposure
p4480
I2452
sVempyema
p4481
I2366
sVebola virus
p4482
I2336
sVcricket
p4483
I2129
sVstomatitis
p4484
I4143
sVlimo
p4485
I3128
sVhaemophilus influenzae
p4486
I2695
sVvasculitis
p4487
I4434
sVacute respiratory distress syndrome
p4488
I1456
sV[linked] neurological and physiological symptom
p4489
I1136
sVgolden staph
p4490
I2636
sVacute lymphocytic leukemia
p4491
I1448
sVconstruction
p4492
I2052
sVplague
p4493
I3632
sVtreponema pallidum
p4494
I4341
sVtechnician
p4495
I4245
sVrectum
p4496
I3803
sVear
p4497
I2319
sV[linked] respiratory abnormality
p4498
I1264
sVbreakwater
p4499
I1779
sV[linked] cognitive disorder
p4500
I687
sVEHDV
p4501
I40
sVkissing bugs
p4502
I3048
sVotitis media
p4503
I3510
sV[linked] autoimmune disease of gastrointestinal tract
p4504
I580
sVsoreness
p4505
I4085
sVdangerous
p4506
I2173
sVaseptic meningitis
p4507
I1585
sV[linked] nasal disorder
p4508
I1109
sVliver fluke
p4509
I3142
sV[linked] Filariasis NOS
p4510
I242
sVlate syphilis
p4511
I3087
sV[linked] Salivary gland disease
p4512
I448
sVcorpses
p4513
I2095
sVcanine influenza
p4514
I1862
sVinfants
p4515
I2918
sVleukopenia
p4516
I3123
sV[linked] lactic acidosis
p4517
I960
sVrabbits
p4518
I3772
sVimmunodeficiency syndrome
p4519
I2900
sV[linked] leukopenia
p4520
I973
sVinfluenza a virus h5n1
p4521
I2951
sV[linked] Articular cartilage disorder of shoulder region
p4522
I159
sV[linked] echinococcosis
p4523
I787
sV[linked] spondyloarthropathy
p4524
I1315
sVhoarse voice
p4525
I2823
sVhodgkin lymphoma
p4526
I2825
sVmollusk
p4527
I3301
sVinfluenza in humans
p4528
I2954
sV[linked] thrombophilia
p4529
I1351
sVeducation
p4530
I2347
sVhuman monkeypox
p4531
I2855
sVautism
p4532
I1607
sVlimb
p4533
I3126
sVdifficulty feeding
p4534
I2234
sVhuman bocavirus
p4535
I2842
sV[linked] plant louse
p4536
I1196
sV[linked] urinary system disease
p4537
I1371
sV[linked] lepidopterous insect
p4538
I968
sVdomestic animal
p4539
I2278
sV[linked] Conjunctivitis, unspecified
p4540
I197
sVillegal movement of animals
p4541
I2896
sVmaculopapular rash
p4542
I3204
sVhematuria
p4543
I2750
sV[linked] abortion
p4544
I497
sV[linked] Nephritis
p4545
I380
sV[linked] perspire
p4546
I1186
sV[linked] tularemia
p4547
I1358
sVbindweed
p4548
I1668
sV[linked] Articular cartilage disorder involving ankle and foot
p4549
I148
sVneuroblastoma
p4550
I3437
sVspongiform encephalopathy
p4551
I4101
sV[linked] ankylosis of ankle and foot joint
p4552
I540
sV[linked] lower respiratory tract disease
p4553
I989
sVavian influenza a h5n1 virus
p4554
I1618
sVenlargement
p4555
I2382
sVsubcutaneous tissue
p4556
I4172
sVliver cirrhosis
p4557
I3136
sVwind
p4558
I4533
sVcoccus
p4559
I2011
sVencephalopathy
p4560
I2373
sVcliff
p4561
I1986
sVringworm
p4562
I3876
sVbivalve
p4563
I1685
sV[linked] upper respiratory tract disease
p4564
I1365
sVnecrosis
p4565
I3417
sVeastern equine encephalitis
p4566
I2325
sV[linked] chronic renal failure syndrome
p4567
I678
sVvulvovaginitis
p4568
I4489
sV[linked] aspergillosis
p4569
I573
sVhikes
p4570
I2812
sVseptic arthritis
p4571
I3974
sVabdominal discomfort
p4572
I1418
sVanthrax skin
p4573
I1544
sVhemorrhagic fever with renal syndrome
p4574
I2765
sV[linked] emesis
p4575
I792
sVoral mucosa
p4576
I3496
sV[linked] Joint ankylosis of the lower leg
p4577
I307
sV[linked] Articular cartilage disorder of the ankle and foot
p4578
I160
ssS'dtype'
p4579
cnumpy
float64
p4580
sS'feature_names_'
p4581
(lp4582
g2102
ag2360
ag377
ag439
ag1956
ag3529
ag3250
ag852
ag4300
ag3423
ag3914
ag3919
ag468
ag3352
ag4316
ag4318
ag2524
ag1345
ag3179
ag281
ag3839
ag748
ag280
ag3193
ag978
ag744
ag957
ag4110
ag3862
ag3333
ag1021
ag3245
ag2314
ag1706
ag1957
ag1306
ag1271
ag4394
ag3562
ag3501
ag4501
ag3499
ag3102
ag1614
ag2378
ag3710
ag79
ag82
ag3525
ag2489
ag4040
ag4256
ag3652
ag440
ag436
ag450
ag459
ag2501
ag1797
ag2411
ag950
ag1682
ag3315
ag3630
ag3347
ag3727
ag3693
ag945
ag3670
ag380
ag827
ag2513
ag1405
ag1605
ag2893
ag3629
ag4161
ag673
ag1194
ag21
ag92
ag1772
ag59
ag1282
ag3362
ag1595
ag3074
ag2527
ag2742
ag2181
ag3079
ag1818
ag4134
ag1816
ag1634
ag1888
ag4477
ag4259
ag3995
ag1481
ag3110
ag3838
ag3113
ag1470
ag2825
ag2189
ag2584
ag878
ag1374
ag2308
ag4006
ag4359
ag1411
ag1420
ag3774
ag3410
ag2383
ag1988
ag2485
ag1959
ag998
ag736
ag831
ag832
ag3973
ag4124
ag4364
ag3589
ag2408
ag4207
ag1936
ag3613
ag2234
ag4400
ag3549
ag2316
ag163
ag1294
ag2060
ag2023
ag2049
ag3993
ag326
ag2172
ag3751
ag144
ag3916
ag1180
ag4549
ag4020
ag1188
ag317
ag3075
ag2662
ag4230
ag185
ag1743
ag3599
ag3605
ag4522
ag4578
ag3815
ag2908
ag4303
ag2357
ag677
ag2029
ag2515
ag873
ag2837
ag1792
ag4327
ag191
ag3466
ag3160
ag1576
ag4333
ag1774
ag127
ag2143
ag2084
ag1607
ag3942
ag1031
ag3646
ag2274
ag4285
ag1652
ag2409
ag2422
ag4289
ag357
ag462
ag3106
ag2244
ag347
ag2544
ag4540
ag1189
ag189
ag3837
ag246
ag550
ag4342
ag3950
ag2795
ag3427
ag2014
ag3718
ag1995
ag3001
ag4121
ag3329
ag226
ag2477
ag2213
ag1012
ag1787
ag3759
ag3486
ag3967
ag2628
ag1472
ag173
ag1183
ag3933
ag1703
ag426
ag742
ag2992
ag3675
ag3338
ag4254
ag612
ag693
ag2115
ag1566
ag2698
ag97
ag1901
ag2252
ag3291
ag4510
ag4023
ag2604
ag390
ag3045
ag3530
ag535
ag3159
ag1528
ag2720
ag590
ag854
ag3389
ag783
ag2791
ag385
ag1516
ag1766
ag2912
ag2405
ag3983
ag1523
ag1256
ag46
ag3434
ag1058
ag4196
ag3913
ag2902
ag497
ag1777
ag3769
ag2224
ag4018
ag4388
ag1408
ag3667
ag1735
ag1301
ag578
ag4092
ag3397
ag582
ag386
ag1270
ag4314
ag1967
ag1213
ag4262
ag272
ag3390
ag307
ag1075
ag1403
ag278
ag2907
ag2133
ag1600
ag2697
ag1262
ag332
ag4357
ag1458
ag1819
ag3439
ag4577
ag443
ag1054
ag121
ag442
ag2321
ag858
ag2081
ag193
ag50
ag1339
ag154
ag3960
ag2970
ag4036
ag2759
ag3052
ag4290
ag4265
ag1465
ag3955
ag3156
ag4291
ag3768
ag988
ag1053
ag2714
ag3149
ag2369
ag1175
ag3286
ag543
ag1964
ag100
ag3185
ag2246
ag2564
ag778
ag2006
ag3625
ag1444
ag1836
ag1187
ag4184
ag2774
ag2216
ag2588
ag1639
ag3138
ag3522
ag2176
ag3986
ag509
ag1015
ag2847
ag3137
ag2980
ag4284
ag1560
ag2356
ag1587
ag3339
ag4266
ag1604
ag427
ag3167
ag2440
ag991
ag2125
ag2549
ag125
ag4446
ag429
ag4545
ag2877
ag35
ag4296
ag1286
ag2953
ag3462
ag1890
ag3621
ag1813
ag4464
ag652
ag1744
ag1142
ag34
ag1678
ag149
ag1383
ag1731
ag3673
ag1503
ag3813
ag484
ag1561
ag1609
ag4277
ag3843
ag3471
ag4208
ag2962
ag2146
ag846
ag1592
ag2476
ag3582
ag417
ag2830
ag2794
ag4239
ag4236
ag3248
ag2704
ag2134
ag3649
ag990
ag1431
ag2575
ag3869
ag4210
ag4475
ag1275
ag2826
ag4234
ag2676
ag1876
ag2801
ag3932
ag2036
ag1978
ag2068
ag3285
ag4050
ag3948
ag1355
ag3748
ag937
ag2657
ag1552
ag4512
ag441
ag2593
ag2074
ag2466
ag1081
ag1591
ag3688
ag1434
ag3930
ag4122
ag3300
ag3395
ag2839
ag117
ag3524
ag3958
ag1177
ag2926
ag178
ag4372
ag1065
ag2929
ag1332
ag1216
ag855
ag4319
ag2107
ag2717
ag3218
ag2210
ag1359
ag2147
ag1690
ag3422
ag1655
ag170
ag3405
ag140
ag4374
ag1551
ag4462
ag1627
ag1937
ag2669
ag2258
ag345
ag1633
ag2930
ag4544
ag3146
ag438
ag4125
ag2406
ag1544
ag148
ag176
ag2214
ag3357
ag3697
ag3896
ag2028
ag1679
ag1911
ag3826
ag56
ag1914
ag399
ag2299
ag1211
ag1018
ag2870
ag2865
ag3823
ag1951
ag1000
ag2170
ag2177
ag1148
ag4387
ag4455
ag1098
ag2370
ag234
ag1095
ag4074
ag770
ag3747
ag473
ag1136
ag3872
ag1452
ag4552
ag1563
ag2763
ag2050
ag4219
ag1179
ag726
ag1143
ag782
ag199
ag3637
ag789
ag3067
ag3506
ag401
ag1508
ag2567
ag3361
ag3669
ag1484
ag2576
ag2497
ag1070
ag1768
ag1007
ag2312
ag3540
ag1238
ag2035
ag3006
ag681
ag1398
ag3404
ag4569
ag2119
ag3535
ag4297
ag715
ag1540
ag4114
ag4504
ag2269
ag3018
ag767
ag1762
ag1670
ag150
ag4014
ag3844
ag3990
ag1424
ag2507
ag2504
ag2653
ag2971
ag2799
ag474
ag1684
ag4170
ag3414
ag870
ag2713
ag624
ag293
ag3055
ag2699
ag617
ag609
ag3517
ag1850
ag2654
ag1448
ag2770
ag887
ag4383
ag4312
ag1785
ag864
ag2017
ag1111
ag2232
ag2875
ag2273
ag824
ag4155
ag794
ag2961
ag320
ag1536
ag464
ag1773
ag2395
ag1026
ag3374
ag1704
ag4132
ag3782
ag2502
ag3281
ag1686
ag1737
ag1395
ag836
ag3293
ag3447
ag657
ag1962
ag2121
ag2215
ag3425
ag3873
ag3450
ag2401
ag1159
ag2813
ag2452
ag1468
ag90
ag64
ag597
ag3253
ag3355
ag3011
ag825
ag642
ag1617
ag2340
ag1720
ag4450
ag406
ag4034
ag1449
ag1712
ag2556
ag3342
ag823
ag1853
ag784
ag4567
ag1084
ag1274
ag263
ag3318
ag1522
ag529
ag1483
ag2880
ag4500
ag1969
ag757
ag727
ag1358
ag3602
ag3176
ag2546
ag3400
ag1525
ag3944
ag2235
ag2878
ag661
ag880
ag2496
ag36
ag938
ag158
ag1283
ag3271
ag1601
ag269
ag3586
ag1524
ag3054
ag892
ag765
ag2566
ag2776
ag1236
ag3409
ag2731
ag2355
ag4323
ag630
ag628
ag1080
ag4460
ag3612
ag4151
ag1279
ag3094
ag305
ag1103
ag1217
ag2677
ag4031
ag2034
ag1944
ag1224
ag1782
ag970
ag370
ag658
ag2025
ag3060
ag4091
ag1060
ag2174
ag646
ag1144
ag3325
ag2866
ag3418
ag3480
ag1717
ag1300
ag2887
ag119
ag2221
ag109
ag2464
ag2901
ag837
ag4129
ag3866
ag3411
ag213
ag1823
ag114
ag353
ag2387
ag1096
ag4087
ag1353
ag3820
ag4010
ag863
ag3091
ag4215
ag2977
ag643
ag981
ag4397
ag965
ag3298
ag3902
ag3036
ag1331
ag4523
ag602
ag2055
ag1880
ag1668
ag4575
ag2710
ag3008
ag3595
ag1546
ag3512
ag2790
ag3448
ag3677
ag3651
ag4100
ag2634
ag3406
ag4211
ag2129
ag3073
ag3171
ag2979
ag813
ag3926
ag3943
ag1933
ag3103
ag1287
ag2003
ag1804
ag980
ag975
ag815
ag2671
ag1809
ag1101
ag3830
ag1351
ag2382
ag2262
ag1129
ag3801
ag1664
ag3205
ag1713
ag1567
ag3861
ag3859
ag1357
ag1943
ag4321
ag2538
ag48
ag379
ag949
ag928
ag1945
ag3124
ag1214
ag633
ag2415
ag902
ag3364
ag1648
ag3566
ag4422
ag730
ag3931
ag18
ag1903
ag2158
ag2673
ag2290
ag4158
ag128
ag1958
ag3979
ag1593
ag1696
ag1505
ag2729
ag1315
ag1831
ag61
ag4201
ag546
ag4088
ag2952
ag587
ag3615
ag275
ag1008
ag3000
ag1022
ag4352
ag3282
ag2066
ag3056
ag1499
ag362
ag2162
ag3778
ag2467
ag843
ag1115
ag1711
ag3750
ag2341
ag3663
ag1637
ag4465
ag3009
ag2155
ag929
ag3763
ag2453
ag1905
ag3454
ag3716
ag74
ag1725
ag2136
ag3505
ag3808
ag1110
ag2601
ag3249
ag888
ag4097
ag2670
ag2173
ag600
ag2200
ag3987
ag335
ag3321
ag295
ag1559
ag2471
ag340
ag721
ag276
ag364
ag3587
ag3812
ag3428
ag1017
ag771
ag3991
ag4102
ag1102
ag699
ag1459
ag330
ag1337
ag1500
ag3849
ag2629
ag3860
ag3184
ag479
ag1724
ag3972
ag885
ag1394
ag2153
ag40
ag1047
ag1485
ag1979
ag1156
ag900
ag4517
ag1303
ag2175
ag2039
ag3555
ag2659
ag845
ag2260
ag4538
ag3821
ag3725
ag3310
ag4144
ag4520
ag2012
ag1726
ag2598
ag2087
ag1656
ag3314
ag3889
ag381
ag2159
ag667
ag3365
ag1926
ag2665
ag2291
ag2918
ag4553
ag1989
ag265
ag2359
ag3766
ag952
ag954
ag3220
ag2886
ag4222
ag921
ag1138
ag3243
ag2001
ag4178
ag498
ag476
ag1727
ag4280
ag1665
ag3772
ag3123
ag3147
ag4267
ag3430
ag572
ag1441
ag4086
ag160
ag3177
ag1407
ag262
ag596
ag1680
ag2446
ag4186
ag255
ag3918
ag3939
ag3168
ag792
ag3366
ag1568
ag4382
ag3296
ag141
ag2490
ag3158
ag4272
ag1141
ag2997
ag2418
ag120
ag1005
ag1661
ag3876
ag2619
ag4063
ag3225
ag713
ag1157
ag4135
ag3392
ag2600
ag2914
ag2811
ag1902
ag1557
ag1297
ag2871
ag2864
ag4233
ag2499
ag3665
ag4439
ag2836
ag2396
ag3577
ag1207
ag3708
ag3095
ag895
ag451
ag3755
ag3043
ag4094
ag4238
ag1176
ag122
ag3469
ag206
ag531
ag1349
ag196
ag2078
ag4099
ag2303
ag3035
ag3240
ag889
ag2777
ag3470
ag2809
ag2928
ag2194
ag2073
ag2807
ag2974
ag3853
ag2718
ag4016
ag1190
ag711
ag2366
ag4045
ag4058
ag717
ag3568
ag2220
ag3024
ag4508
ag2941
ag4447
ag2109
ag2945
ag3200
ag2461
ag2249
ag2898
ag3676
ag4362
ag894
ag2616
ag2958
ag1341
ag1986
ag4479
ag2019
ag1097
ag1126
ag1419
ag1640
ag731
ag2428
ag2095
ag2318
ag3681
ag4489
ag967
ag3730
ag4165
ag1934
ag3981
ag1248
ag2664
ag3822
ag3951
ag1827
ag1757
ag2144
ag4153
ag1742
ag2863
ag4407
ag626
ag3274
ag1365
ag229
ag1663
ag2876
ag404
ag2424
ag4093
ag4026
ag2304
ag1506
ag1765
ag1134
ag2352
ag3583
ag1078
ag499
ag4271
ag1581
ag1848
ag2015
ag4183
ag4426
ag1479
ag684
ag992
ag4433
ag2048
ag1487
ag665
ag4174
ag3479
ag4546
ag933
ag3186
ag3145
ag3059
ag1304
ag2987
ag3827
ag2967
ag1260
ag4536
ag1851
ag2509
ag3457
ag3655
ag4080
ag908
ag4385
ag2183
ag3897
ag2182
ag3927
ag1728
ag2413
ag1199
ag3453
ag22
ag1312
ag1924
ag2761
ag1124
ag3100
ag1204
ag1729
ag296
ag3781
ag2503
ag4128
ag3847
ag3004
ag2590
ag4115
ag3533
ag4416
ag1277
ag3435
ag3261
ag501
ag2361
ag1527
ag3278
ag2327
ag3868
ag4062
ag2276
ag3511
ag4059
ag856
ag3650
ag1751
ag4078
ag1562
ag2426
ag3539
ag4325
ag2520
ag3552
ag654
ag3767
ag12
ag1596
ag1497
ag2045
ag972
ag3992
ag1981
ag4076
ag1681
ag4498
ag2660
ag2469
ag4281
ag547
ag1193
ag3668
ag3672
ag3975
ag3231
ag3182
ag355
ag2529
ag1636
ag1806
ag3122
ag3396
ag2332
ag3042
ag2245
ag3856
ag2160
ag3604
ag1350
ag17
ag1370
ag66
ag204
ag3949
ag804
ag2067
ag3510
ag3633
ag1812
ag1941
ag194
ag1356
ag3797
ag260
ag1820
ag2689
ag891
ag155
ag456
ag1598
ag408
ag4057
ag72
ag1112
ag1624
ag2482
ag4524
ag1109
ag534
ag1683
ag525
ag207
ag2533
ag872
ag1799
ag1983
ag3208
ag1284
ag3878
ag575
ag3686
ag3974
ag3088
ag2152
ag2804
ag2199
ag561
ag4380
ag817
ag2661
ag4116
ag910
ag2054
ag712
ag3015
ag2696
ag4244
ag4067
ag862
ag4137
ag3440
ag1366
ag4529
ag1137
ag573
ag4466
ag2223
ag1874
ag558
ag4547
ag2117
ag3393
ag915
ag3953
ag1791
ag2013
ag4564
ag4420
ag3924
ag2946
ag3970
ag1817
ag4537
ag851
ag4022
ag1736
ag3061
ag3634
ag4428
ag23
ag2508
ag1149
ag218
ag1460
ag3639
ag444
ag2277
ag3982
ag4370
ag1781
ag1087
ag1154
ag571
ag710
ag2156
ag3155
ag1677
ag1169
ag3324
ag323
ag4133
ag1375
ag4228
ag1296
ag4305
ag2641
ag394
ag4126
ag3572
ag777
ag3236
ag818
ag3235
ag3229
ag2434
ag1985
ag2643
ag1313
ag3017
ag4572
ag1689
ag4081
ag4104
ag914
ag3888
ag1367
ag4474
ag800
ag934
ag2596
ag1251
ag1231
ag3600
ag701
ag2032
ag3320
ag1173
ag2787
ag3023
ag4167
ag3313
ag655
ag2846
ag927
ag94
ag4478
ag3531
ag4212
ag2940
ag4491
ag3468
ag4261
ag413
ag869
ag424
ag3258
ag3263
ag4488
ag2185
ag2757
ag460
ag187
ag2937
ag3380
ag1611
ag2599
ag2784
ag2090
ag1389
ag1090
ag4476
ag2565
ag3437
ag3132
ag690
ag24
ag2251
ag4242
ag1975
ag3097
ag2451
ag369
ag3545
ag89
ag2758
ag2346
ag3780
ag458
ag3070
ag2708
ag2638
ag2909
ag1952
ag1205
ag2933
ag2823
ag1009
ag2716
ag2711
ag2195
ag107
ag4024
ag2685
ag2750
ag2658
ag2310
ag3344
ag1155
ag3007
ag526
ag2733
ag3371
ag3776
ag2483
ag1030
ag1894
ag2330
ag2789
ag2786
ag1166
ag3014
ag2391
ag2900
ag2869
ag697
ag1146
ag2609
ag2473
ag58
ag308
ag2254
ag3702
ag886
ag1450
ag2553
ag3498
ag754
ag3553
ag4232
ag1035
ag1034
ag762
ag4033
ag3062
ag1123
ag4573
ag838
ag467
ag506
ag481
ag3521
ag1088
ag3266
ag2294
ag3611
ag1469
ag1972
ag1654
ag2512
ag3207
ag601
ag1352
ag2805
ag565
ag1669
ag1740
ag3514
ag4270
ag3976
ag3053
ag1125
ag2486
ag3275
ag2491
ag3640
ag157
ag2132
ag4068
ag735
ag4401
ag3736
ag253
ag1769
ag647
ag2442
ag220
ag4507
ag3408
ag3515
ag2917
ag2816
ag3653
ag1644
ag676
ag2041
ag1201
ag1172
ag4177
ag324
ag4028
ag4216
ag1322
ag4356
ag3251
ag4015
ag378
ag2103
ag3680
ag4532
ag3619
ag1362
ag182
ag1915
ag3183
ag454
ag2179
ag3610
ag1691
ag3794
ag4554
ag3267
ag2812
ag1877
ag2986
ag2171
ag4226
ag4123
ag3643
ag2112
ag1330
ag2647
ag4406
ag3909
ag3419
ag2622
ag3699
ag1244
ag1241
ag3622
ag2130
ag670
ag2583
ag2749
ag2767
ag3354
ag99
ag1641
ag3965
ag1206
ag2288
ag3114
ag152
ag737
ag622
ag1028
ag627
ag4069
ag1960
ag3658
ag1477
ag3940
ag1529
ag2345
ag4332
ag3683
ag4182
ag1413
ag3212
ag3166
ag4548
ag4322
ag4347
ag1347
ag3557
ag3560
ag3279
ag1579
ag1464
ag1547
ag1613
ag4105
ag1376
ag1811
ag1432
ag1572
ag3666
ag4563
ag500
ag4095
ag2403
ag3592
ag959
ag1178
ag987
ag3211
ag2040
ag3311
ag2760
ag3086
ag3210
ag3495
ag3764
ag806
ag2996
ag1753
ag2719
ag15
ag3937
ag486
ag2568
ag3304
ag4192
ag2558
ag37
ag1955
ag1899
ag1127
ag879
ag1253
ag787
ag2639
ag2208
ag4324
ag200
ag2459
ag3904
ag962
ag341
ag2037
ag3477
ag3127
ag1835
ag3695
ag903
ag4185
ag4463
ag4066
ag1082
ag3700
ag4295
ag3905
ag495
ag286
ag2122
ag1243
ag2141
ag4257
ag3175
ag2649
ag3244
ag3963
ag948
ag1463
ag2363
ag2518
ag1290
ag4308
ag1973
ag722
ag1796
ag2780
ag1467
ag361
ag2343
ag104
ag2398
ag2002
ag544
ag4414
ag3496
ag4083
ag123
ag3206
ag3083
ag1647
ag3594
ag116
ag2828
ag3109
ag2386
ag4499
ag2192
ag1892
ag303
ag1085
ag3593
ag913
ag1733
ag2889
ag2752
ag252
ag3232
ag177
ag1775
ag2011
ag2007
ag1794
ag3556
ag4181
ag1996
ag3047
ag763
ag3775
ag1061
ag2377
ag604
ag1289
ag3247
ag1548
ag3616
ag4301
ag3065
ag3136
ag3452
ag4141
ag4053
ag3048
ag2203
ag4209
ag2462
ag1314
ag881
ag2625
ag3099
ag3842
ag3915
ag3322
ag2853
ag976
ag2985
ag2151
ag3346
ag2668
ag985
ag3488
ag1625
ag3121
ag692
ag4199
ag2617
ag1698
ag3936
ag1929
ag2096
ag522
ag758
ag171
ag166
ag4311
ag3295
ag1385
ag4440
ag551
ag4007
ag1828
ag857
ag2931
ag3662
ag2042
ag1897
ag4106
ag2838
ag3879
ag4514
ag1147
ag1160
ag445
ag906
ag2840
ag3473
ag3563
ag943
ag1974
ag1859
ag1412
ag539
ag472
ag982
ag208
ag1839
ag3753
ag871
ag3656
ag1440
ag639
ag202
ag3299
ag3901
ag751
ag327
ag2947
ag3580
ag2827
ag1276
ag591
ag86
ag2484
ag3143
ag2404
ag383
ag4171
ag1121
ag1749
ag153
ag545
ag1807
ag2365
ag875
ag1947
ag631
ag585
ag583
ag3227
ag1280
ag3935
ag1697
ag1741
ag527
ag4147
ag614
ag1273
ag216
ag4375
ag4041
ag2548
ag3129
ag2519
ag507
ag1223
ag435
ag4166
ag4140
ag1329
ag4310
ag2322
ag760
ag3887
ag1023
ag2480
ag1834
ag1333
ag1049
ag2819
ag4202
ag3720
ag709
ag358
ag1854
ag3058
ag703
ag3170
ag1074
ag2306
ag2920
ag4109
ag1875
ag3527
ag4176
ag4456
ag4013
ag3084
ag3016
ag4379
ag310
ag1594
ag1221
ag738
ag3372
ag1993
ag2578
ag3328
ag2621
ag548
ag640
ag2608
ag102
ag396
ag392
ag2075
ag2666
ag4404
ag434
ag2350
ag814
ag1645
ag4120
ag3508
ag4561
ag3148
ag1616
ag1326
ag3715
ag3246
ag1950
ag4047
ag1912
ag2472
ag979
ag2615
ag70
ag2675
ag1550
ag1210
ag2860
ag1514
ag3424
ag610
ag1649
ag598
ag2635
ag448
ag1921
ag4559
ag2707
ag1002
ag1462
ag4163
ag1708
ag1245
ag478
ag1886
ag2481
ag1857
ag1555
ag2835
ag1453
ag1884
ag2582
ag3104
ag4021
ag4148
ag973
ag2927
ag4131
ag3254
ag1184
ag801
ag3131
ag1387
ag679
ag3934
ag388
ag3691
ag2142
ag3026
ag2939
ag131
ag2374
ag3745
ag931
ag2402
ag3998
ag359
ag4492
ag853
ag3420
ag2187
ag2514
ag1371
ag1133
ag1841
ag3997
ag1252
ag1588
ag705
ag1496
ag3733
ag231
ag2161
ag996
ag3120
ag3806
ag1887
ag247
ag3654
ag2603
ag3696
ag4252
ag1077
ag2773
ag4055
ag432
ag666
ag2843
ag3520
ag4454
ag3319
ag3262
ag1198
ag2305
ag3800
ag1203
ag4227
ag1410
ag346
ag4405
ag4513
ag3740
ag1292
ag3398
ag593
ag592
ag2362
ag156
ag2674
ag1920
ag145
ag3165
ag2279
ag696
ag1363
ag1784
ag2488
ag1399
ag741
ag3623
ag4079
ag4004
ag2957
ag3358
ag1893
ag1558
ag3162
ag3046
ag936
ag1116
ag2723
ag4246
ag2851
ag329
ag4483
ag930
ag2861
ag1687
ag93
ag1263
ag4348
ag2114
ag2431
ag3538
ag812
ag1603
ag3536
ag2569
ag249
ag1072
ag1219
ag2064
ag1509
ag1364
ag2385
ag3752
ag1480
ag3199
ag2287
ag3645
ag4258
ag106
ag1997
ag4283
ag1597
ag687
ag1369
ag769
ag1863
ag3841
ag2814
ag2140
ag2693
ag1543
ag67
ag4264
ag80
ag3601
ag4506
ag3028
ag1171
ag168
ag1599
ag2315
ag939
ag1482
ag1100
ag3356
ag4011
ag3547
ag118
ag3201
ag694
ag2008
ag4391
ag3706
ag1307
ag4287
ag57
ag81
ag4179
ag1660
ag2209
ag3010
ag1542
ag2030
ag1869
ag3444
ag3964
ag1844
ag1342
ag924
ag1474
ag3590
ag3850
ag360
ag3899
ag1046
ag3567
ag4248
ag956
ag4329
ag629
ag3544
ag3272
ag3573
ag1004
ag2531
ag3126
ag2766
ag2948
ag2605
ag410
ag27
ag4313
ag1226
ag1114
ag4336
ag3832
ag4534
ag4054
ag1628
ag3831
ag3433
ag3377
ag567
ag916
ag4112
ag2493
ag2868
ag1132
ag4162
ag517
ag3348
ag3721
ag2591
ag2709
ag704
ag1373
ag60
ag2821
ag363
ag3500
ag325
ag3989
ag3305
ag1250
ag3021
ag138
ag2510
ag2951
ag790
ag3791
ag1968
ag2783
ag2572
ag554
ag552
ag2857
ag3230
ag3290
ag461
ag124
ag4539
ag502
ag2872
ag3224
ag3798
ag1429
ag563
ag1695
ag1621
ag2703
ag2257
ag3403
ag4298
ag569
ag1427
ag1982
ag691
ag3118
ag580
ag283
ag2018
ag2336
ag2935
ag3327
ag2681
ag3609
ag3101
ag4403
ag2919
ag1826
ag3020
ag1759
ag3722
ag560
ag1409
ag898
ag3484
ag1798
ag3851
ag77
ag3370
ag4497
ag795
ag2769
ag3050
ag4341
ag3779
ag4566
ag3911
ag4282
ag993
ag3308
ag3270
ag2574
ag4127
ag1626
ag3238
ag1401
ag4482
ag1856
ag3082
ag1052
ag922
ag2725
ag3908
ag219
ag2024
ag1247
ag1916
ag4530
ag3534
ag197
ag134
ag2089
ag349
ag1254
ag2648
ag940
ag3744
ag3413
ag3789
ag2903
ag2247
ag656
ag4098
ag1953
ag2196
ag2998
ag4481
ag1966
ag354
ag222
ag4169
ag740
ag215
ag4560
ag781
ag384
ag2956
ag2982
ag613
ag2743
ag2070
ag653
ag4555
ag3893
ag2191
ag2632
ag1940
ag2335
ag901
ag2242
ag2376
ag321
ag3215
ag2966
ag3739
ag3928
ag87
ag1622
ag1045
ag1220
ag725
ag2127
ag3754
ag331
ag1316
ag4467
ag91
ag1454
ag621
ag3455
ag4384
ag409
ag2009
ag1249
ag4214
ag1455
ag365
ag1862
ag1272
ag2169
ag3685
ag3257
ag3863
ag4139
ag4143
ag1361
ag4220
ag3598
ag753
ag2021
ag2905
ag946
ag3513
ag186
ag4150
ag1719
ag756
ag785
ag3034
ag4046
ag834
ag2679
ag3742
ag298
ag883
ag1909
ag2397
ag3985
ag2239
ag2225
ag175
ag2233
ag4480
ag319
ag2097
ag1309
ag4373
ag2348
ag2734
ag2455
ag126
ag638
ag1954
ag2808
ag3096
ag4017
ag2061
ag3912
ag1571
ag1533
ag2848
ag1574
ag2458
ag169
ag2031
ag2353
ag719
ag955
ag3714
ag4205
ag1829
ag2788
ag3464
ag3584
ag3723
ag698
ag8
ag2712
ag877
ag1748
ag2268
ag2740
ag3886
ag3799
ag664
ag4145
ag4461
ag788
ag574
ag4365
ag1025
ag1963
ag2923
ag3620
ag3259
ag4307
ag285
ag4294
ag2120
ag2076
ag3130
ag1298
ag2874
ag4260
ag1093
ag287
ag3350
ag619
ag3066
ag2063
ag2193
ag1515
ag718
ag304
ag3726
ag3194
ag3157
ag671
ag1755
ag1789
ag953
ag2479
ag4317
ag2999
ag4363
ag430
ag76
ag1113
ag1907
ag3135
ag775
ag1802
ag3895
ag1299
ag2004
ag3331
ag3141
ag2542
ag3848
ag3489
ag1335
ag3335
ag2652
ag1987
ag2842
ag282
ag3115
ag1990
ag3297
ag1927
ag407
ag678
ag2344
ag511
ag2027
ag1418
ag2640
ag3682
ag3460
ag3302
ag2077
ag1062
ag4206
ag3701
ag905
ag398
ag759
ag1163
ag2672
ag897
ag2834
ag4107
ag2270
ag3345
ag1658
ag761
ag3465
ag2650
ag1783
ag2885
ag3154
ag273
ag3189
ag147
ag2815
ag3264
ag1692
ag3071
ag3069
ag3187
ag4042
ag2092
ag3819
ag111
ag4070
ag301
ag2005
ag729
ag4306
ag964
ag2072
ag3379
ag2607
ag3999
ag3569
ag1426
ag2744
ag2891
ag3481
ag3169
ag2782
ag707
ag344
ag375
ag3283
ag510
ag1108
ag3894
ag3292
ag2457
ag2545
ag3624
ag268
ag3037
ag3925
ag1381
ag4490
ag3803
ag1520
ag4299
ag2272
ag3307
ag4089
ag315
ag1150
ag151
ag1763
ag1293
ag2589
ag1182
ag3865
ag1510
ag960
ag2447
ag1498
ag3092
ag746
ag2026
ag4229
ag1107
ag1043
ag2989
ag2922
ag184
ag1521
ag3596
ag3543
ag944
ag4434
ag2056
ag2333
ag3306
ag3659
ag4430
ag2240
ag3033
ag1761
ag2000
ag4410
ag4084
ag1222
ag1384
ag3828
ag3451
ag3922
ag714
ag1685
ag374
ag494
ag1507
ag645
ag2448
ag807
ag1232
ag4351
ag4486
ag3213
ag4188
ag3575
ag3394
ag4390
ag2347
ag2435
ag829
ag733
ag1541
ag3793
ag211
ag3382
ag4240
ag3737
ag195
ag4249
ag4032
ag3441
ag1932
ag1764
ag941
ag3478
ag1490
ag1051
ag217
ag2768
ag3038
ag423
ag2793
ag3192
ag3952
ag41
ag1977
ag3546
ag786
ag2680
ag1278
ag4038
ag3487
ag3929
ag1379
ag3303
ag3770
ag2686
ag161
ag1793
ag1734
ag2427
ag3867
ag594
ag2400
ag1754
ag1400
ag4543
ag997
ag3790
ag1923
ag3635
ag4077
ag421
ag2449
ag4418
ag700
ag1511
ag2099
ag649
ag1145
ag3818
ag4574
ag2498
ag3738
ag2942
ag391
ag2190
ag2367
ag1750
ag4263
ag2895
ag1229
ag3664
ag2184
ag3684
ag2266
ag1402
ag3674
ag4082
ag3388
ag3678
ag336
ag3679
ag3519
ag1553
ag4189
ag2138
ag3903
ag112
ag1837
ag584
ag4337
ag2859
ag986
ag3151
ag3139
ag2682
ag773
ag2478
ag2474
ag1057
ag3648
ag3980
ag2116
ag3363
ag974
ag4037
ag485
ag4570
ag1308
ag2692
ag2916
ag2057
ag477
ag1237
ag2148
ag1208
ag113
ag3417
ag4525
ag2043
ag4526
ag2164
ag1815
ag3128
ag1771
ag3111
ag240
ag482
ag2751
ag1910
ag2470
ag1164
ag1242
ag1998
ag1788
ag764
ag3234
ag4535
ag615
ag1261
ag2375
ag4224
ag599
ag3795
ag470
ag623
ag636
ag634
ag3946
ag3660
ag4531
ag882
ag2879
ag65
ag918
ag2642
ag2631
ag2145
ag2390
ag1946
ag3459
ag4030
ag2984
ag3503
ag453
ag3657
ag1089
ag135
ag4368
ag1135
ag2845
ag2684
ag1694
ag2038
ag2796
ag4288
ag1404
ag542
ag2334
ag1069
ag1949
ag4398
ag2523
ag2351
ag3164
ag2150
ag328
ag2329
ag1646
ag2423
ag1671
ag4541
ag2561
ag2069
ag2197
ag4519
ag2585
ag3112
ag3900
ag1825
ag3202
ag2586
ag743
ag4156
ag3080
ag723
ag2663
ag766
ag2915
ag2597
ag4056
ag1745
ag1003
ag4515
ag2630
ag2610
ag4451
ag3636
ag3375
ag1428
ag1014
ag259
ag2701
ag1971
ag1131
ag2202
ag3426
ag3343
ag4469
ag267
ag309
ag1538
ag4442
ag3152
ag1461
ag1642
ag994
ag4415
ag44
ag3551
ag4371
ag2307
ag2373
ag4025
ag4350
ag2053
ag4521
ag3607
ag1037
ag4528
ag2959
ag2802
ag2633
ag803
ag4438
ag819
ag2543
ag2297
ag1619
ag446
ag2955
ag3493
ag968
ag2126
ag3771
ag3223
ag3077
ag3317
ag2338
ag4090
ag568
ag159
ag1492
ag3528
ag2678
ag4243
ag425
ag2526
ag1900
ag1334
ag143
ag2833
ag3181
ag1577
ag101
ag3150
ag1076
ag1086
ag2149
ag2419
ag254
ag2994
ag142
ag465
ag833
ag3402
ag1343
ag984
ag4432
ag3833
ag3574
ag235
ag2534
ag524
ag3938
ag1855
ag3134
ag38
ag3554
ag333
ag1709
ag2454
ag2536
ag3921
ag2755
ag4168
ag859
ag2736
ag4221
ag103
ag4048
ag3917
ag4071
ag3119
ag2420
ag2944
ag2580
ag1494
ag820
ag3351
ag1344
ag2511
ag2309
ag4345
ag2762
ag3085
ag1930
ag356
ag1739
ag557
ag2950
ag1502
ag3559
ag4502
ag402
ag4326
ag1714
ag1336
ag1446
ag73
ag1898
ag923
ag2495
ag1027
ag2883
ag288
ag3401
ag4471
ag3241
ag2873
ag2217
ag2978
ag236
ag1442
ag4330
ag3689
ag1186
ag2205
ag316
ag3541
ag1324
ag1228
ag2368
ag4273
ag4472
ag10
ag1843
ag686
ag1050
ag1780
ag3606
ag2432
ag4511
ag1291
ag2721
ag4245
ag1653
ag505
ag2938
ag3855
ag519
ag1606
ag1071
ag241
ag1885
ag1512
ag1760
ag266
ag1883
ag2824
ag4424
ag414
ag2728
ag3027
ag393
ag1501
ag1423
ag105
ag1227
ag1620
ag3711
ag238
ag4005
ag675
ag1814
ag518
ag3717
ag2890
ag4516
ag1666
ag1040
ag4533
ag133
ag4485
ag3242
ag4369
ag239
ag437
ag292
ag2530
ag971
ag4557
ag1602
ag3483
ag3947
ag3507
ag1821
ag4509
ag1451
ag2022
ag3703
ag2550
ag772
ag3044
ag3504
ag536
ag2960
ag245
ag172
ag1091
ag734
ag334
ag339
ag595
ag412
ag2921
ag791
ag3920
ag1702
ag1368
ag865
ag3029
ag4136
ag2537
ag1010
ag4197
ag1721
ag515
ag3890
ag752
ag4459
ag2800
ag3962
ag1106
ag338
ag4286
ag3204
ag3994
ag312
ag1767
ag3391
ag2441
ag1615
ag809
ag1162
ag514
ag566
ag4130
ag1526
ag907
ag4338
ag2746
ag136
ag860
ag4191
ag1984
ag3093
ag2331
ag1770
ag4542
ag3642
ag2785
ag188
ag1416
ag1348
ag4072
ag2412
ag2505
ag2737
ag2771
ag1590
ag926
ag1421
ag2560
ag2372
ag203
ag11
ag1445
ag1895
ag3734
ag480
ag3421
ag350
ag4444
ag3497
ag52
ag4419
ag1327
ag1518
ag3874
ag192
ag2298
ag1583
ag532
ag251
ag3597
ag668
ag1919
ag55
ag3432
ag2283
ag1970
ag556
ag1325
ag796
ag33
ag3959
ag351
ag1105
ag4423
ag3221
ag49
ag3719
ag1917
ag2253
ag2113
ag1320
ag841
ag3644
ag1456
ag3846
ag3864
ag2436
ag821
ag2118
ag4344
ag3429
ag2554
ag861
ag1846
ag53
ag3956
ag702
ag1466
ag14
ag3632
ag2595
ag917
ag2284
ag3116
ag1513
ag1170
ag19
ag1676
ag4408
ag28
ag411
ag366
ag3117
ag290
ag300
ag2198
ag3614
ag1024
ag373
ag3809
ag4527
ag3906
ag2557
ag1756
ag848
ag1860
ag2551
ag489
ag96
ag3792
ag1699
ag925
ag289
ag1140
ag3786
ag1378
ag4389
ag3098
ag3825
ag1938
ag3811
ag1589
ag797
ag422
ag716
ag3581
ag3757
ag2241
ag2230
ag2899
ag3881
ag1056
ag1866
ag3330
ag1747
ag2342
ag1139
ag2552
ag2416
ag4302
ag3013
ag2292
ag850
ag3724
ag774
ag2264
ag3783
ag1267
ag4343
ag793
ag1612
ag1882
ag4304
ag4203
ag4200
ag3219
ag553
ag1675
ag3301
ag2110
ag1858
ag3502
ag3690
ag896
ag3709
ag1092
ag999
ag3198
ag2612
ag1425
ag181
ag463
ag1896
ag1650
ag3961
ag2238
ag659
ag2188
ag2655
ag1346
ag3214
ag2178
ag1545
ag4340
ag3805
ag3336
ag1073
ag508
ag3687
ag348
ag3472
ag868
ag1354
ag4251
ag4396
ag487
ag342
ag85
ag4448
ag2301
ag4334
ag2259
ag2211
ag352
ag2222
ag4235
ag3289
ag1961
ag3509
ag2651
ag4386
ag368
ag1435
ag3532
ag1212
ag3561
ag4565
ag3438
ag198
ag4427
ag3485
ag4381
ag4458
ag1674
ag1659
ag2849
ag4052
ag1011
ag504
ag4335
ag1202
ag3280
ag755
ag3787
ag2046
ag680
ag4550
ag4146
ag2995
ag2358
ag1838
ag4331
ag4292
ag1255
ag2792
ag115
ag1688
ag452
ag2981
ag2968
ag2913
ag212
ag4435
ag2201
ag1225
ag2936
ag1918
ag648
ag1119
ag2044
ag1710
ag1038
ag1414
ag3188
ag2475
ag1269
ag29
ag2646
ag2085
ag2627
ag3579
ag2407
ag16
ag415
ag2293
ag1473
ag2581
ag250
ag129
ag3526
ag108
ag2620
ag849
ag1532
ag1865
ag2829
ag2896
ag1158
ag1623
ag4113
ag2521
ag603
ag2778
ag3019
ag1486
ag4576
ag3588
ag1265
ag3383
ag2243
ag1565
ag1662
ag1258
ag75
ag1586
ag2559
ag1380
ag47
ag4346
ag4503
ag78
ag3618
ag4293
ag4276
ag904
ag3326
ag589
ag279
ag3163
ag1539
ag3312
ag958
ag1776
ag3089
ag947
ag776
ag449
ag961
ag419
ag4278
ag162
ag4274
ag2236
ag2817
ag822
ag2237
ag739
ag1305
ag3209
ag2137
ag4247
ag1643
ag2965
ag3804
ag3877
ag2135
ag224
ag1319
ag3449
ag2059
ag274
ag1803
ag1436
ag3834
ag1629
ag2380
ag227
ag1723
ag2071
ag3474
ag110
ag2781
ag732
ag3332
ag1393
ag3641
ag3492
ag1234
ag549
ag1549
ag2098
ag3966
ag1556
ag2285
ag2088
ag983
ag1310
ag3523
ag1063
ag3463
ag2083
ag1302
ag242
ag2856
ag3003
ag1672
ag2756
ag1667
ag2765
ag2500
ag1638
ag2094
ag695
ag291
ag2388
ag2328
ag2263
ag3407
ag2614
ag3252
ag4175
ag3341
ag4064
ag4119
ag810
ag469
ag1491
ag2302
ag1488
ag607
ag3743
ag3785
ag3954
ag4194
ag3661
ag2906
ag248
ag1554
ag2688
ag62
ag632
ag3883
ag559
ag1868
ag4402
ag1800
ag4180
ag1908
ag1582
ag4060
ag3898
ag4493
ag4218
ag2547
ag911
ag1992
ag969
ag4253
ag1534
ag256
ag318
ag493
ag1715
ag1068
ag447
ag3802
ag2339
ag2289
ag1259
ag2123
ag3707
ag491
ag1531
ag3030
ag3334
ag2392
ag1657
ag3698
ag230
ag966
ag2393
ag51
ag3190
ag4361
ag4360
ag3222
ag3367
ag1118
ag1391
ag3277
ag2764
ag2460
ag3784
ag2267
ag397
ag724
ag1317
ag1864
ag951
ag1094
ag228
ag257
ag2644
ag4172
ag780
ag2219
ag4075
ag3570
ag541
ag1732
ag4355
ag1635
ag1867
ag2206
ag314
ag4035
ag1991
ag1891
ag2079
ag3349
ag3309
ag1564
ag3971
ag2844
ag1478
ag2705
ag867
ag3031
ag530
ag3761
ag165
ag337
ag521
ag4349
ag418
ag932
ag2381
ag3647
ag4378
ag3233
ag3728
ag2522
ag3125
ag3817
ag2748
ag2726
ag2624
ag3203
ag4470
ag1209
ag492
ag2450
ag3627
ag2934
ag1181
ag1580
ag2492
ag1994
ag299
ag3969
ag2337
ag4393
ag3758
ag2715
ag3072
ag2563
ag728
ag1153
ag4198
ag466
ag3941
ag3369
ag635
ag1067
ag1631
ag2592
ag2323
ag3378
ag39
ag2532
ag919
ag4085
ag1922
ag3490
ag3852
ag1233
ag1032
ag3456
ag3078
ag1338
ag2613
ag4518
ag2278
ag3415
ag1842
ag3140
ag3564
ag2691
ag1200
ag828
ag205
ag2517
ag3829
ag221
ag588
ag2207
ag3022
ag2417
ag3197
ag3988
ag3796
ag2925
ag662
ag405
ag1475
ag513
ag2379
ag512
ag3436
ag4029
ag562
ag1786
ag4496
ag1570
ag3237
ag3273
ag1832
ag4445
ag3256
ag1039
ag1392
ag1099
ag1861
ag1845
ag4190
ag1397
ag3353
ag2810
ag689
ag1746
ag683
ag1191
ag816
ag431
ag2016
ag2165
ag564
ag2636
ag4187
ag3585
ag88
ag4173
ag3858
ag1422
ag4213
ag4436
ag750
ag1889
ag2349
ag2080
ag2108
ag3269
ag130
ag1701
ag2656
ag2154
ag3537
ag3228
ag1064
ag428
ag1810
ag3288
ag3068
ag45
ag942
ag1872
ag2645
ag2747
ag1535
ag1377
ag2326
ag2618
ag2275
ag371
ag1906
ag3773
ag2579
ag4468
ag660
ag2410
ag4065
ag4002
ag3836
ag2101
ag1852
ag4562
ag2516
ag43
ag3875
ag1281
ag387
ag2852
ag1707
ag663
ag1059
ag3741
ag1165
ag3608
ag433
ag672
ag528
ag2972
ag893
ag3217
ag802
ag416
ag2803
ag1151
ag2818
ag1016
ag3412
ag1904
ag1264
ag2570
ag3276
ag637
ag1980
ag3704
ag1323
ag1246
ag570
ag4223
ag2867
ag3385
ag1168
ag2354
ag1321
ag1386
ag1066
ag1044
ag2065
ag3491
ag209
ag579
ag4003
ag2430
ag4049
ag1584
ag4217
ag2300
ag669
ag1235
ag2626
ag3516
ag935
ag313
ag3443
ag4437
ag457
ag3180
ag1495
ag3260
ag2797
ag1185
ag3694
ag912
ag2465
ag2964
ag3777
ag1805
ag606
ag3387
ag1406
ag4275
ag3461
ag3626
ag2212
ag2058
ag3891
ag3090
ag685
ag1632
ag32
ag164
ag2364
ag4411
ag4353
ag1999
ag2429
ag3957
ag1083
ag1878
ag3025
ag4571
ag270
ag3041
ag1036
ag866
ag2281
ag1517
ag1128
ag1673
ag1935
ag3884
ag1120
ag3910
ag2667
ag1152
ag2324
ag2296
ag180
ag3494
ag3458
ag2727
ag605
ag420
ag706
ag214
ag2702
ag2745
ag2881
ag1608
ag1530
ag2456
ag1104
ag3133
ag2218
ag4149
ag2910
ag989
ag3550
ag3518
ag2577
ag2969
ag2706
ag2167
ag3153
ag311
ag490
ag2820
ag3431
ag2228
ag83
ag3161
ag306
ag1013
ag3749
ag3049
ag3814
ag3107
ag1948
ag1873
ag4138
ag3571
ag1840
ag3565
ag811
ag25
ag1174
ag4339
ag1651
ag210
ag3824
ag183
ag1925
ag4452
ag2371
ag586
ag2724
ag2168
ag2571
ag1801
ag3108
ag1913
ag2124
ag688
ag2105
ag4008
ag4051
ag799
ag3880
ag1738
ag1822
ag4429
ag674
ag4425
ag1716
ag2086
ag2924
ag2822
ag847
ag3735
ag1079
ag1041
ag3173
ag842
ag4377
ag768
ag3359
ag2433
ag1240
ag302
ag1117
ag2052
ag4505
ag3788
ag4111
ag3835
ag4164
ag2163
ag1833
ag890
ag3870
ag3340
ag4019
ag3226
ag4315
ag1610
ag1942
ag2690
ag4551
ag3854
ag400
ag523
ag322
ag2020
ag1042
ag3239
ag3542
ag403
ag2280
ag3063
ag1931
ag1439
ag830
ag3381
ag2186
ag376
ag963
ag3617
ag2993
ag1218
ag1388
ag3316
ag3039
ag2204
ag1020
ag1630
ag1778
ag4250
ag2139
ag1693
ag3064
ag3386
ag4117
ag2911
ag4204
ag455
ag3923
ag1569
ag1847
ag3144
ag4484
ag995
ag2573
ag1285
ag1311
ag2227
ag876
ag1504
ag4118
ag139
ag1382
ag745
ag1197
ag3373
ag1976
ag884
ag277
ag2226
ag2180
ag1318
ag1390
ag3892
ag4412
ag4043
ag4073
ag3178
ag2425
ag2862
ag4320
ag4556
ag1808
ag3765
ag4269
ag3040
ag3482
ag2741
ag2487
ag2738
ag3945
ag2882
ag3445
ag581
ag3907
ag223
ag1006
ag3578
ag2319
ag2832
ag30
ag555
ag2841
ag137
ag271
ag4441
ag1328
ag3548
ag2894
ag826
ag2884
ag3081
ag2739
ag4160
ag1824
ag708
ag3746
ag244
ag1476
ag2973
ag651
ag4027
ag1438
ag4392
ag641
ag26
ag2611
ag3996
ag1443
ag3760
ag2983
ag2157
ag4399
ag503
ag4195
ag2753
ag1447
ag3692
ag68
ag2271
ag2256
ag1415
ag2166
ag2943
ag1340
ag2111
ag2892
ag2463
ag3005
ag1295
ag2394
ag4309
ag1573
ag3265
ag4495
ag3172
ag4108
ag1433
ag2754
ag1430
ag4012
ag1700
ag4142
ag682
ag625
ag3057
ag3368
ag258
ag2444
ag1758
ag1130
ag84
ag516
ag225
ag4328
ag2602
ag2772
ag2468
ag1215
ag2623
ag1790
ag1048
ag146
ag650
ag4001
ag3442
ag2437
ag2525
ag3857
ag874
ag2317
ag4358
ag2535
ag2858
ag264
ag835
ag1705
ag297
ag2093
ag3376
ag4159
ag2399
ag3076
ag389
ag2250
ag4009
ag1752
ag174
ag2775
ag3732
ag4443
ag611
ag1192
ag4367
ag1870
ag2033
ag367
ag243
ag1965
ag4449
ag2494
ag2854
ag4225
ag1730
ag3591
ag2976
ag2439
ag294
ag909
ag2700
ag3603
ag3977
ag2888
ag798
ag1871
ag3416
ag2443
ag3105
ag395
ag3142
ag2779
ag3631
ag2384
ag488
ag3384
ag977
ag1849
ag3032
ag31
ag2051
ag4494
ag2261
ag2606
ag4044
ag4061
ag2421
ag779
ag4473
ag805
ag3984
ag4431
ag2082
ag2722
ag372
ag2231
ag616
ag538
ag3816
ag2445
ag4103
ag2587
ag1519
ag3968
ag2732
ag540
ag644
ag2949
ag2990
ag3268
ag483
ag3705
ag3576
ag608
ag4376
ag3638
ag749
ag2991
ag1417
ag69
ag1928
ag4154
ag620
ag2091
ag1489
ag3882
ag1471
ag3845
ag2295
ag3671
ag4421
ag576
ag2694
ag20
ag2730
ag1879
ag3762
ag2229
ag840
ag1230
ag1578
ag4268
ag537
ag4241
ag2506
ag1360
ag2131
ag2414
ag3446
ag2855
ag2798
ag4039
ag3255
ag1055
ag1396
ag3360
ag2282
ag2954
ag3756
ag2062
ag3284
ag132
ag1288
ag3713
ag2528
ag4413
ag3476
ag4366
ag232
ag4152
ag2831
ag98
ag1881
ag520
ag4487
ag382
ag1001
ag3807
ag4395
ag618
ag42
ag71
ag4453
ag2683
ag190
ag1537
ag4409
ag1196
ag3002
ag577
ag1161
ag2438
ag3337
ag1167
ag2255
ag2897
ag1722
ag2389
ag2963
ag1585
ag54
ag2010
ag3051
ag3087
ag2932
ag13
ag3216
ag4457
ag1457
ag4417
ag2904
ag2850
ag3729
ag4354
ag1718
ag9
ag3294
ag1437
ag720
ag4237
ag533
ag920
ag343
ag2128
ag2988
ag3871
ag2637
ag233
ag2248
ag4568
ag3712
ag3885
ag3399
ag179
ag2687
ag2695
ag1019
ag844
ag3840
ag2104
ag261
ag4279
ag2562
ag2265
ag1493
ag3558
ag2806
ag3196
ag3810
ag3467
ag2540
ag2047
ag1372
ag4096
ag2313
ag3012
ag237
ag1830
ag496
ag1257
ag2735
ag4231
ag475
ag167
ag1195
ag2286
ag201
ag1029
ag2975
ag3978
ag1268
ag1266
ag3287
ag4558
ag3195
ag839
ag3731
ag1122
ag2594
ag471
ag747
ag3191
ag2320
ag2539
ag808
ag2311
ag95
ag1795
ag4101
ag4157
ag4193
ag2106
ag1033
ag1779
ag1939
ag3323
ag2541
ag4000
ag63
ag2555
ag284
ag4255
ag1239
ag3174
ag3628
ag3475
ag1618
ag899
ag2100
ag1575
ag2325
asS'separator'
p4583
S'='
p4584
sS'sparse'
p4585
I00
sb.